ARM GAS  /tmp/cc2lDYQJ.s 			page 1


   1              		.cpu cortex-m4
   2              		.arch armv7e-m
   3              		.fpu fpv4-sp-d16
   4              		.eabi_attribute 27, 1
   5              		.eabi_attribute 28, 1
   6              		.eabi_attribute 20, 1
   7              		.eabi_attribute 21, 1
   8              		.eabi_attribute 23, 3
   9              		.eabi_attribute 24, 1
  10              		.eabi_attribute 25, 1
  11              		.eabi_attribute 26, 1
  12              		.eabi_attribute 30, 1
  13              		.eabi_attribute 34, 1
  14              		.eabi_attribute 18, 4
  15              		.file	"stm32g4xx_hal_pwr_ex.c"
  16              		.text
  17              	.Ltext0:
  18              		.cfi_sections	.debug_frame
  19              		.section	.text.HAL_PWREx_GetVoltageRange,"ax",%progbits
  20              		.align	1
  21              		.global	HAL_PWREx_GetVoltageRange
  22              		.syntax unified
  23              		.thumb
  24              		.thumb_func
  26              	HAL_PWREx_GetVoltageRange:
  27              	.LFB329:
  28              		.file 1 "Drivers/STM32G4xx_HAL_Driver/Src/stm32g4xx_hal_pwr_ex.c"
   1:Drivers/STM32G4xx_HAL_Driver/Src/stm32g4xx_hal_pwr_ex.c **** /**
   2:Drivers/STM32G4xx_HAL_Driver/Src/stm32g4xx_hal_pwr_ex.c ****   ******************************************************************************
   3:Drivers/STM32G4xx_HAL_Driver/Src/stm32g4xx_hal_pwr_ex.c ****   * @file    stm32g4xx_hal_pwr_ex.c
   4:Drivers/STM32G4xx_HAL_Driver/Src/stm32g4xx_hal_pwr_ex.c ****   * @author  MCD Application Team
   5:Drivers/STM32G4xx_HAL_Driver/Src/stm32g4xx_hal_pwr_ex.c ****   * @brief   Extended PWR HAL module driver.
   6:Drivers/STM32G4xx_HAL_Driver/Src/stm32g4xx_hal_pwr_ex.c ****   *          This file provides firmware functions to manage the following
   7:Drivers/STM32G4xx_HAL_Driver/Src/stm32g4xx_hal_pwr_ex.c ****   *          functionalities of the Power Controller (PWR) peripheral:
   8:Drivers/STM32G4xx_HAL_Driver/Src/stm32g4xx_hal_pwr_ex.c ****   *           + Extended Initialization and de-initialization functions
   9:Drivers/STM32G4xx_HAL_Driver/Src/stm32g4xx_hal_pwr_ex.c ****   *           + Extended Peripheral Control functions
  10:Drivers/STM32G4xx_HAL_Driver/Src/stm32g4xx_hal_pwr_ex.c ****   *
  11:Drivers/STM32G4xx_HAL_Driver/Src/stm32g4xx_hal_pwr_ex.c ****   ******************************************************************************
  12:Drivers/STM32G4xx_HAL_Driver/Src/stm32g4xx_hal_pwr_ex.c ****   * @attention
  13:Drivers/STM32G4xx_HAL_Driver/Src/stm32g4xx_hal_pwr_ex.c ****   *
  14:Drivers/STM32G4xx_HAL_Driver/Src/stm32g4xx_hal_pwr_ex.c ****   * <h2><center>&copy; Copyright (c) 2019 STMicroelectronics.
  15:Drivers/STM32G4xx_HAL_Driver/Src/stm32g4xx_hal_pwr_ex.c ****   * All rights reserved.</center></h2>
  16:Drivers/STM32G4xx_HAL_Driver/Src/stm32g4xx_hal_pwr_ex.c ****   *
  17:Drivers/STM32G4xx_HAL_Driver/Src/stm32g4xx_hal_pwr_ex.c ****   * This software component is licensed by ST under BSD 3-Clause license,
  18:Drivers/STM32G4xx_HAL_Driver/Src/stm32g4xx_hal_pwr_ex.c ****   * the "License"; You may not use this file except in compliance with the
  19:Drivers/STM32G4xx_HAL_Driver/Src/stm32g4xx_hal_pwr_ex.c ****   * License. You may obtain a copy of the License at:
  20:Drivers/STM32G4xx_HAL_Driver/Src/stm32g4xx_hal_pwr_ex.c ****   *                        opensource.org/licenses/BSD-3-Clause
  21:Drivers/STM32G4xx_HAL_Driver/Src/stm32g4xx_hal_pwr_ex.c ****   *
  22:Drivers/STM32G4xx_HAL_Driver/Src/stm32g4xx_hal_pwr_ex.c ****   ******************************************************************************
  23:Drivers/STM32G4xx_HAL_Driver/Src/stm32g4xx_hal_pwr_ex.c ****   */
  24:Drivers/STM32G4xx_HAL_Driver/Src/stm32g4xx_hal_pwr_ex.c **** 
  25:Drivers/STM32G4xx_HAL_Driver/Src/stm32g4xx_hal_pwr_ex.c **** /* Includes ------------------------------------------------------------------*/
  26:Drivers/STM32G4xx_HAL_Driver/Src/stm32g4xx_hal_pwr_ex.c **** #include "stm32g4xx_hal.h"
  27:Drivers/STM32G4xx_HAL_Driver/Src/stm32g4xx_hal_pwr_ex.c **** 
  28:Drivers/STM32G4xx_HAL_Driver/Src/stm32g4xx_hal_pwr_ex.c **** /** @addtogroup STM32G4xx_HAL_Driver
  29:Drivers/STM32G4xx_HAL_Driver/Src/stm32g4xx_hal_pwr_ex.c ****   * @{
  30:Drivers/STM32G4xx_HAL_Driver/Src/stm32g4xx_hal_pwr_ex.c ****   */
ARM GAS  /tmp/cc2lDYQJ.s 			page 2


  31:Drivers/STM32G4xx_HAL_Driver/Src/stm32g4xx_hal_pwr_ex.c **** 
  32:Drivers/STM32G4xx_HAL_Driver/Src/stm32g4xx_hal_pwr_ex.c **** /** @defgroup PWREx PWREx
  33:Drivers/STM32G4xx_HAL_Driver/Src/stm32g4xx_hal_pwr_ex.c ****   * @brief PWR Extended HAL module driver
  34:Drivers/STM32G4xx_HAL_Driver/Src/stm32g4xx_hal_pwr_ex.c ****   * @{
  35:Drivers/STM32G4xx_HAL_Driver/Src/stm32g4xx_hal_pwr_ex.c ****   */
  36:Drivers/STM32G4xx_HAL_Driver/Src/stm32g4xx_hal_pwr_ex.c **** 
  37:Drivers/STM32G4xx_HAL_Driver/Src/stm32g4xx_hal_pwr_ex.c **** #ifdef HAL_PWR_MODULE_ENABLED
  38:Drivers/STM32G4xx_HAL_Driver/Src/stm32g4xx_hal_pwr_ex.c **** 
  39:Drivers/STM32G4xx_HAL_Driver/Src/stm32g4xx_hal_pwr_ex.c **** /* Private typedef -----------------------------------------------------------*/
  40:Drivers/STM32G4xx_HAL_Driver/Src/stm32g4xx_hal_pwr_ex.c **** /* Private define ------------------------------------------------------------*/
  41:Drivers/STM32G4xx_HAL_Driver/Src/stm32g4xx_hal_pwr_ex.c **** 
  42:Drivers/STM32G4xx_HAL_Driver/Src/stm32g4xx_hal_pwr_ex.c **** 
  43:Drivers/STM32G4xx_HAL_Driver/Src/stm32g4xx_hal_pwr_ex.c **** #if defined (STM32G471xx) || defined (STM32G473xx) || defined (STM32G474xx) || defined (STM32G483xx
  44:Drivers/STM32G4xx_HAL_Driver/Src/stm32g4xx_hal_pwr_ex.c **** #define PWR_PORTF_AVAILABLE_PINS   0x0000FFFFU /* PF0..PF15 */
  45:Drivers/STM32G4xx_HAL_Driver/Src/stm32g4xx_hal_pwr_ex.c **** #define PWR_PORTG_AVAILABLE_PINS   0x000007FFU /* PG0..PG10 */
  46:Drivers/STM32G4xx_HAL_Driver/Src/stm32g4xx_hal_pwr_ex.c **** #elif defined (STM32G431xx) || defined (STM32G441xx) || defined (STM32GBK1CB) || defined (STM32G491
  47:Drivers/STM32G4xx_HAL_Driver/Src/stm32g4xx_hal_pwr_ex.c **** #define PWR_PORTF_AVAILABLE_PINS   0x00000607U /* PF0..PF2 and PF9 and PF10 */
  48:Drivers/STM32G4xx_HAL_Driver/Src/stm32g4xx_hal_pwr_ex.c **** #define PWR_PORTG_AVAILABLE_PINS   0x00000400U /* PG10 */
  49:Drivers/STM32G4xx_HAL_Driver/Src/stm32g4xx_hal_pwr_ex.c **** #endif
  50:Drivers/STM32G4xx_HAL_Driver/Src/stm32g4xx_hal_pwr_ex.c **** 
  51:Drivers/STM32G4xx_HAL_Driver/Src/stm32g4xx_hal_pwr_ex.c **** /** @defgroup PWR_Extended_Private_Defines PWR Extended Private Defines
  52:Drivers/STM32G4xx_HAL_Driver/Src/stm32g4xx_hal_pwr_ex.c ****   * @{
  53:Drivers/STM32G4xx_HAL_Driver/Src/stm32g4xx_hal_pwr_ex.c ****   */
  54:Drivers/STM32G4xx_HAL_Driver/Src/stm32g4xx_hal_pwr_ex.c **** 
  55:Drivers/STM32G4xx_HAL_Driver/Src/stm32g4xx_hal_pwr_ex.c **** /** @defgroup PWREx_PVM_Mode_Mask PWR PVM Mode Mask
  56:Drivers/STM32G4xx_HAL_Driver/Src/stm32g4xx_hal_pwr_ex.c ****   * @{
  57:Drivers/STM32G4xx_HAL_Driver/Src/stm32g4xx_hal_pwr_ex.c ****   */
  58:Drivers/STM32G4xx_HAL_Driver/Src/stm32g4xx_hal_pwr_ex.c **** #define PVM_MODE_IT               0x00010000U    /*!< Mask for interruption yielded by PVM threshol
  59:Drivers/STM32G4xx_HAL_Driver/Src/stm32g4xx_hal_pwr_ex.c **** #define PVM_MODE_EVT              0x00020000U    /*!< Mask for event yielded by PVM threshold cross
  60:Drivers/STM32G4xx_HAL_Driver/Src/stm32g4xx_hal_pwr_ex.c **** #define PVM_RISING_EDGE           0x00000001U    /*!< Mask for rising edge set as PVM trigger      
  61:Drivers/STM32G4xx_HAL_Driver/Src/stm32g4xx_hal_pwr_ex.c **** #define PVM_FALLING_EDGE          0x00000002U    /*!< Mask for falling edge set as PVM trigger     
  62:Drivers/STM32G4xx_HAL_Driver/Src/stm32g4xx_hal_pwr_ex.c **** /**
  63:Drivers/STM32G4xx_HAL_Driver/Src/stm32g4xx_hal_pwr_ex.c ****   * @}
  64:Drivers/STM32G4xx_HAL_Driver/Src/stm32g4xx_hal_pwr_ex.c ****   */
  65:Drivers/STM32G4xx_HAL_Driver/Src/stm32g4xx_hal_pwr_ex.c **** 
  66:Drivers/STM32G4xx_HAL_Driver/Src/stm32g4xx_hal_pwr_ex.c **** /** @defgroup PWREx_TimeOut_Value PWR Extended Flag Setting Time Out Value
  67:Drivers/STM32G4xx_HAL_Driver/Src/stm32g4xx_hal_pwr_ex.c ****   * @{
  68:Drivers/STM32G4xx_HAL_Driver/Src/stm32g4xx_hal_pwr_ex.c ****   */
  69:Drivers/STM32G4xx_HAL_Driver/Src/stm32g4xx_hal_pwr_ex.c **** #define PWR_FLAG_SETTING_DELAY_US                      50UL   /*!< Time out value for REGLPF and VO
  70:Drivers/STM32G4xx_HAL_Driver/Src/stm32g4xx_hal_pwr_ex.c **** /**
  71:Drivers/STM32G4xx_HAL_Driver/Src/stm32g4xx_hal_pwr_ex.c ****   * @}
  72:Drivers/STM32G4xx_HAL_Driver/Src/stm32g4xx_hal_pwr_ex.c ****   */
  73:Drivers/STM32G4xx_HAL_Driver/Src/stm32g4xx_hal_pwr_ex.c **** 
  74:Drivers/STM32G4xx_HAL_Driver/Src/stm32g4xx_hal_pwr_ex.c **** 
  75:Drivers/STM32G4xx_HAL_Driver/Src/stm32g4xx_hal_pwr_ex.c **** 
  76:Drivers/STM32G4xx_HAL_Driver/Src/stm32g4xx_hal_pwr_ex.c **** /**
  77:Drivers/STM32G4xx_HAL_Driver/Src/stm32g4xx_hal_pwr_ex.c ****   * @}
  78:Drivers/STM32G4xx_HAL_Driver/Src/stm32g4xx_hal_pwr_ex.c ****   */
  79:Drivers/STM32G4xx_HAL_Driver/Src/stm32g4xx_hal_pwr_ex.c **** 
  80:Drivers/STM32G4xx_HAL_Driver/Src/stm32g4xx_hal_pwr_ex.c **** 
  81:Drivers/STM32G4xx_HAL_Driver/Src/stm32g4xx_hal_pwr_ex.c **** 
  82:Drivers/STM32G4xx_HAL_Driver/Src/stm32g4xx_hal_pwr_ex.c **** /* Private macro -------------------------------------------------------------*/
  83:Drivers/STM32G4xx_HAL_Driver/Src/stm32g4xx_hal_pwr_ex.c **** /* Private variables ---------------------------------------------------------*/
  84:Drivers/STM32G4xx_HAL_Driver/Src/stm32g4xx_hal_pwr_ex.c **** /* Private function prototypes -----------------------------------------------*/
  85:Drivers/STM32G4xx_HAL_Driver/Src/stm32g4xx_hal_pwr_ex.c **** /* Exported functions --------------------------------------------------------*/
  86:Drivers/STM32G4xx_HAL_Driver/Src/stm32g4xx_hal_pwr_ex.c **** 
  87:Drivers/STM32G4xx_HAL_Driver/Src/stm32g4xx_hal_pwr_ex.c **** /** @defgroup PWREx_Exported_Functions PWR Extended Exported Functions
ARM GAS  /tmp/cc2lDYQJ.s 			page 3


  88:Drivers/STM32G4xx_HAL_Driver/Src/stm32g4xx_hal_pwr_ex.c ****   * @{
  89:Drivers/STM32G4xx_HAL_Driver/Src/stm32g4xx_hal_pwr_ex.c ****   */
  90:Drivers/STM32G4xx_HAL_Driver/Src/stm32g4xx_hal_pwr_ex.c **** 
  91:Drivers/STM32G4xx_HAL_Driver/Src/stm32g4xx_hal_pwr_ex.c **** /** @defgroup PWREx_Exported_Functions_Group1 Extended Peripheral Control functions
  92:Drivers/STM32G4xx_HAL_Driver/Src/stm32g4xx_hal_pwr_ex.c ****   *  @brief   Extended Peripheral Control functions
  93:Drivers/STM32G4xx_HAL_Driver/Src/stm32g4xx_hal_pwr_ex.c ****   *
  94:Drivers/STM32G4xx_HAL_Driver/Src/stm32g4xx_hal_pwr_ex.c **** @verbatim
  95:Drivers/STM32G4xx_HAL_Driver/Src/stm32g4xx_hal_pwr_ex.c ****  ===============================================================================
  96:Drivers/STM32G4xx_HAL_Driver/Src/stm32g4xx_hal_pwr_ex.c ****               ##### Extended Peripheral Initialization and de-initialization functions #####
  97:Drivers/STM32G4xx_HAL_Driver/Src/stm32g4xx_hal_pwr_ex.c ****  ===============================================================================
  98:Drivers/STM32G4xx_HAL_Driver/Src/stm32g4xx_hal_pwr_ex.c ****     [..]
  99:Drivers/STM32G4xx_HAL_Driver/Src/stm32g4xx_hal_pwr_ex.c **** 
 100:Drivers/STM32G4xx_HAL_Driver/Src/stm32g4xx_hal_pwr_ex.c **** @endverbatim
 101:Drivers/STM32G4xx_HAL_Driver/Src/stm32g4xx_hal_pwr_ex.c ****   * @{
 102:Drivers/STM32G4xx_HAL_Driver/Src/stm32g4xx_hal_pwr_ex.c ****   */
 103:Drivers/STM32G4xx_HAL_Driver/Src/stm32g4xx_hal_pwr_ex.c **** 
 104:Drivers/STM32G4xx_HAL_Driver/Src/stm32g4xx_hal_pwr_ex.c **** 
 105:Drivers/STM32G4xx_HAL_Driver/Src/stm32g4xx_hal_pwr_ex.c **** /**
 106:Drivers/STM32G4xx_HAL_Driver/Src/stm32g4xx_hal_pwr_ex.c ****   * @brief Return Voltage Scaling Range.
 107:Drivers/STM32G4xx_HAL_Driver/Src/stm32g4xx_hal_pwr_ex.c ****   * @retval VOS bit field (PWR_REGULATOR_VOLTAGE_SCALE1 or PWR_REGULATOR_VOLTAGE_SCALE2
 108:Drivers/STM32G4xx_HAL_Driver/Src/stm32g4xx_hal_pwr_ex.c ****   *         or PWR_REGULATOR_VOLTAGE_SCALE1_BOOST when applicable)
 109:Drivers/STM32G4xx_HAL_Driver/Src/stm32g4xx_hal_pwr_ex.c ****   */
 110:Drivers/STM32G4xx_HAL_Driver/Src/stm32g4xx_hal_pwr_ex.c **** uint32_t HAL_PWREx_GetVoltageRange(void)
 111:Drivers/STM32G4xx_HAL_Driver/Src/stm32g4xx_hal_pwr_ex.c **** {
  29              		.loc 1 111 1 view -0
  30              		.cfi_startproc
  31              		@ args = 0, pretend = 0, frame = 0
  32              		@ frame_needed = 0, uses_anonymous_args = 0
  33              		@ link register save eliminated.
 112:Drivers/STM32G4xx_HAL_Driver/Src/stm32g4xx_hal_pwr_ex.c ****   if (READ_BIT(PWR->CR1, PWR_CR1_VOS) == PWR_REGULATOR_VOLTAGE_SCALE2)
  34              		.loc 1 112 3 view .LVU1
  35              		.loc 1 112 7 is_stmt 0 view .LVU2
  36 0000 074B     		ldr	r3, .L4
  37 0002 1868     		ldr	r0, [r3]
  38 0004 00F4C060 		and	r0, r0, #1536
  39              		.loc 1 112 6 view .LVU3
  40 0008 B0F5806F 		cmp	r0, #1024
  41 000c 04D0     		beq	.L1
 113:Drivers/STM32G4xx_HAL_Driver/Src/stm32g4xx_hal_pwr_ex.c ****   {
 114:Drivers/STM32G4xx_HAL_Driver/Src/stm32g4xx_hal_pwr_ex.c ****     return PWR_REGULATOR_VOLTAGE_SCALE2;
 115:Drivers/STM32G4xx_HAL_Driver/Src/stm32g4xx_hal_pwr_ex.c ****   }
 116:Drivers/STM32G4xx_HAL_Driver/Src/stm32g4xx_hal_pwr_ex.c ****   else if (READ_BIT(PWR->CR5, PWR_CR5_R1MODE) == PWR_CR5_R1MODE)
  42              		.loc 1 116 8 is_stmt 1 view .LVU4
  43              		.loc 1 116 12 is_stmt 0 view .LVU5
  44 000e D3F88000 		ldr	r0, [r3, #128]
  45              		.loc 1 116 11 view .LVU6
  46 0012 10F48070 		ands	r0, r0, #256
  47 0016 00D1     		bne	.L3
  48              	.L1:
 117:Drivers/STM32G4xx_HAL_Driver/Src/stm32g4xx_hal_pwr_ex.c ****   {
 118:Drivers/STM32G4xx_HAL_Driver/Src/stm32g4xx_hal_pwr_ex.c ****     /* PWR_CR5_R1MODE bit set means that Range 1 Boost is disabled */
 119:Drivers/STM32G4xx_HAL_Driver/Src/stm32g4xx_hal_pwr_ex.c ****     return PWR_REGULATOR_VOLTAGE_SCALE1;
 120:Drivers/STM32G4xx_HAL_Driver/Src/stm32g4xx_hal_pwr_ex.c ****   }
 121:Drivers/STM32G4xx_HAL_Driver/Src/stm32g4xx_hal_pwr_ex.c ****   else
 122:Drivers/STM32G4xx_HAL_Driver/Src/stm32g4xx_hal_pwr_ex.c ****   {
 123:Drivers/STM32G4xx_HAL_Driver/Src/stm32g4xx_hal_pwr_ex.c ****     return PWR_REGULATOR_VOLTAGE_SCALE1_BOOST;
 124:Drivers/STM32G4xx_HAL_Driver/Src/stm32g4xx_hal_pwr_ex.c ****   }
ARM GAS  /tmp/cc2lDYQJ.s 			page 4


 125:Drivers/STM32G4xx_HAL_Driver/Src/stm32g4xx_hal_pwr_ex.c **** }
  49              		.loc 1 125 1 view .LVU7
  50 0018 7047     		bx	lr
  51              	.L3:
 119:Drivers/STM32G4xx_HAL_Driver/Src/stm32g4xx_hal_pwr_ex.c ****   }
  52              		.loc 1 119 12 view .LVU8
  53 001a 4FF40070 		mov	r0, #512
  54 001e FBE7     		b	.L1
  55              	.L5:
  56              		.align	2
  57              	.L4:
  58 0020 00700040 		.word	1073770496
  59              		.cfi_endproc
  60              	.LFE329:
  62              		.section	.text.HAL_PWREx_ControlVoltageScaling,"ax",%progbits
  63              		.align	1
  64              		.global	HAL_PWREx_ControlVoltageScaling
  65              		.syntax unified
  66              		.thumb
  67              		.thumb_func
  69              	HAL_PWREx_ControlVoltageScaling:
  70              	.LVL0:
  71              	.LFB330:
 126:Drivers/STM32G4xx_HAL_Driver/Src/stm32g4xx_hal_pwr_ex.c **** 
 127:Drivers/STM32G4xx_HAL_Driver/Src/stm32g4xx_hal_pwr_ex.c **** 
 128:Drivers/STM32G4xx_HAL_Driver/Src/stm32g4xx_hal_pwr_ex.c **** 
 129:Drivers/STM32G4xx_HAL_Driver/Src/stm32g4xx_hal_pwr_ex.c **** /**
 130:Drivers/STM32G4xx_HAL_Driver/Src/stm32g4xx_hal_pwr_ex.c ****   * @brief Configure the main internal regulator output voltage.
 131:Drivers/STM32G4xx_HAL_Driver/Src/stm32g4xx_hal_pwr_ex.c ****   * @param  VoltageScaling: specifies the regulator output voltage to achieve
 132:Drivers/STM32G4xx_HAL_Driver/Src/stm32g4xx_hal_pwr_ex.c ****   *         a tradeoff between performance and power consumption.
 133:Drivers/STM32G4xx_HAL_Driver/Src/stm32g4xx_hal_pwr_ex.c ****   *          This parameter can be one of the following values:
 134:Drivers/STM32G4xx_HAL_Driver/Src/stm32g4xx_hal_pwr_ex.c ****   *            @arg @ref PWR_REGULATOR_VOLTAGE_SCALE1_BOOST when available, Regulator voltage outpu
 135:Drivers/STM32G4xx_HAL_Driver/Src/stm32g4xx_hal_pwr_ex.c ****   *                                                typical output voltage at 1.28 V,
 136:Drivers/STM32G4xx_HAL_Driver/Src/stm32g4xx_hal_pwr_ex.c ****   *                                                system frequency up to 170 MHz.
 137:Drivers/STM32G4xx_HAL_Driver/Src/stm32g4xx_hal_pwr_ex.c ****   *            @arg @ref PWR_REGULATOR_VOLTAGE_SCALE1 Regulator voltage output range 1 mode,
 138:Drivers/STM32G4xx_HAL_Driver/Src/stm32g4xx_hal_pwr_ex.c ****   *                                                typical output voltage at 1.2 V,
 139:Drivers/STM32G4xx_HAL_Driver/Src/stm32g4xx_hal_pwr_ex.c ****   *                                                system frequency up to 150 MHz.
 140:Drivers/STM32G4xx_HAL_Driver/Src/stm32g4xx_hal_pwr_ex.c ****   *            @arg @ref PWR_REGULATOR_VOLTAGE_SCALE2 Regulator voltage output range 2 mode,
 141:Drivers/STM32G4xx_HAL_Driver/Src/stm32g4xx_hal_pwr_ex.c ****   *                                                typical output voltage at 1.0 V,
 142:Drivers/STM32G4xx_HAL_Driver/Src/stm32g4xx_hal_pwr_ex.c ****   *                                                system frequency up to 26 MHz.
 143:Drivers/STM32G4xx_HAL_Driver/Src/stm32g4xx_hal_pwr_ex.c ****   * @note  When moving from Range 1 to Range 2, the system frequency must be decreased to
 144:Drivers/STM32G4xx_HAL_Driver/Src/stm32g4xx_hal_pwr_ex.c ****   *        a value below 26 MHz before calling HAL_PWREx_ControlVoltageScaling() API.
 145:Drivers/STM32G4xx_HAL_Driver/Src/stm32g4xx_hal_pwr_ex.c ****   *        When moving from Range 2 to Range 1, the system frequency can be increased to
 146:Drivers/STM32G4xx_HAL_Driver/Src/stm32g4xx_hal_pwr_ex.c ****   *        a value up to 150 MHz after calling HAL_PWREx_ControlVoltageScaling() API.
 147:Drivers/STM32G4xx_HAL_Driver/Src/stm32g4xx_hal_pwr_ex.c ****   *        When moving from Range 1 to Boost Mode Range 1, the system frequency can be increased to
 148:Drivers/STM32G4xx_HAL_Driver/Src/stm32g4xx_hal_pwr_ex.c ****   *        a value up to 170 MHz after calling HAL_PWREx_ControlVoltageScaling() API.
 149:Drivers/STM32G4xx_HAL_Driver/Src/stm32g4xx_hal_pwr_ex.c ****   * @note  When moving from Range 2 to Range 1, the API waits for VOSF flag to be
 150:Drivers/STM32G4xx_HAL_Driver/Src/stm32g4xx_hal_pwr_ex.c ****   *        cleared before returning the status. If the flag is not cleared within
 151:Drivers/STM32G4xx_HAL_Driver/Src/stm32g4xx_hal_pwr_ex.c ****   *        50 microseconds, HAL_TIMEOUT status is reported.
 152:Drivers/STM32G4xx_HAL_Driver/Src/stm32g4xx_hal_pwr_ex.c ****   * @retval HAL Status
 153:Drivers/STM32G4xx_HAL_Driver/Src/stm32g4xx_hal_pwr_ex.c ****   */
 154:Drivers/STM32G4xx_HAL_Driver/Src/stm32g4xx_hal_pwr_ex.c **** HAL_StatusTypeDef HAL_PWREx_ControlVoltageScaling(uint32_t VoltageScaling)
 155:Drivers/STM32G4xx_HAL_Driver/Src/stm32g4xx_hal_pwr_ex.c **** {
  72              		.loc 1 155 1 is_stmt 1 view -0
  73              		.cfi_startproc
  74              		@ args = 0, pretend = 0, frame = 0
  75              		@ frame_needed = 0, uses_anonymous_args = 0
ARM GAS  /tmp/cc2lDYQJ.s 			page 5


  76              		@ link register save eliminated.
 156:Drivers/STM32G4xx_HAL_Driver/Src/stm32g4xx_hal_pwr_ex.c ****   uint32_t wait_loop_index;
  77              		.loc 1 156 3 view .LVU10
 157:Drivers/STM32G4xx_HAL_Driver/Src/stm32g4xx_hal_pwr_ex.c **** 
 158:Drivers/STM32G4xx_HAL_Driver/Src/stm32g4xx_hal_pwr_ex.c ****   assert_param(IS_PWR_VOLTAGE_SCALING_RANGE(VoltageScaling));
  78              		.loc 1 158 3 view .LVU11
 159:Drivers/STM32G4xx_HAL_Driver/Src/stm32g4xx_hal_pwr_ex.c **** 
 160:Drivers/STM32G4xx_HAL_Driver/Src/stm32g4xx_hal_pwr_ex.c ****   if (VoltageScaling == PWR_REGULATOR_VOLTAGE_SCALE1_BOOST)
  79              		.loc 1 160 3 view .LVU12
  80              		.loc 1 160 6 is_stmt 0 view .LVU13
  81 0000 0028     		cmp	r0, #0
  82 0002 36D1     		bne	.L7
 161:Drivers/STM32G4xx_HAL_Driver/Src/stm32g4xx_hal_pwr_ex.c ****   {
 162:Drivers/STM32G4xx_HAL_Driver/Src/stm32g4xx_hal_pwr_ex.c ****     /* If current range is range 2 */
 163:Drivers/STM32G4xx_HAL_Driver/Src/stm32g4xx_hal_pwr_ex.c ****     if (READ_BIT(PWR->CR1, PWR_CR1_VOS) == PWR_REGULATOR_VOLTAGE_SCALE2)
  83              		.loc 1 163 5 is_stmt 1 view .LVU14
  84              		.loc 1 163 9 is_stmt 0 view .LVU15
  85 0004 3E4B     		ldr	r3, .L23
  86 0006 1B68     		ldr	r3, [r3]
  87 0008 03F4C063 		and	r3, r3, #1536
  88              		.loc 1 163 8 view .LVU16
  89 000c B3F5806F 		cmp	r3, #1024
  90 0010 08D0     		beq	.L20
 164:Drivers/STM32G4xx_HAL_Driver/Src/stm32g4xx_hal_pwr_ex.c ****     {
 165:Drivers/STM32G4xx_HAL_Driver/Src/stm32g4xx_hal_pwr_ex.c ****       /* Make sure Range 1 Boost is enabled */
 166:Drivers/STM32G4xx_HAL_Driver/Src/stm32g4xx_hal_pwr_ex.c ****       CLEAR_BIT(PWR->CR5, PWR_CR5_R1MODE);
 167:Drivers/STM32G4xx_HAL_Driver/Src/stm32g4xx_hal_pwr_ex.c **** 
 168:Drivers/STM32G4xx_HAL_Driver/Src/stm32g4xx_hal_pwr_ex.c ****       /* Set Range 1 */
 169:Drivers/STM32G4xx_HAL_Driver/Src/stm32g4xx_hal_pwr_ex.c ****       MODIFY_REG(PWR->CR1, PWR_CR1_VOS, PWR_REGULATOR_VOLTAGE_SCALE1);
 170:Drivers/STM32G4xx_HAL_Driver/Src/stm32g4xx_hal_pwr_ex.c **** 
 171:Drivers/STM32G4xx_HAL_Driver/Src/stm32g4xx_hal_pwr_ex.c ****       /* Wait until VOSF is cleared */
 172:Drivers/STM32G4xx_HAL_Driver/Src/stm32g4xx_hal_pwr_ex.c ****       wait_loop_index = ((PWR_FLAG_SETTING_DELAY_US * SystemCoreClock) / 1000000U) + 1U;
 173:Drivers/STM32G4xx_HAL_Driver/Src/stm32g4xx_hal_pwr_ex.c ****       while ((HAL_IS_BIT_SET(PWR->SR2, PWR_SR2_VOSF)) && (wait_loop_index != 0U))
 174:Drivers/STM32G4xx_HAL_Driver/Src/stm32g4xx_hal_pwr_ex.c ****       {
 175:Drivers/STM32G4xx_HAL_Driver/Src/stm32g4xx_hal_pwr_ex.c ****         wait_loop_index--;
 176:Drivers/STM32G4xx_HAL_Driver/Src/stm32g4xx_hal_pwr_ex.c ****       }
 177:Drivers/STM32G4xx_HAL_Driver/Src/stm32g4xx_hal_pwr_ex.c ****       if (HAL_IS_BIT_SET(PWR->SR2, PWR_SR2_VOSF))
 178:Drivers/STM32G4xx_HAL_Driver/Src/stm32g4xx_hal_pwr_ex.c ****       {
 179:Drivers/STM32G4xx_HAL_Driver/Src/stm32g4xx_hal_pwr_ex.c ****         return HAL_TIMEOUT;
 180:Drivers/STM32G4xx_HAL_Driver/Src/stm32g4xx_hal_pwr_ex.c ****       }
 181:Drivers/STM32G4xx_HAL_Driver/Src/stm32g4xx_hal_pwr_ex.c ****     }
 182:Drivers/STM32G4xx_HAL_Driver/Src/stm32g4xx_hal_pwr_ex.c ****     /* If current range is range 1 normal or boost mode */
 183:Drivers/STM32G4xx_HAL_Driver/Src/stm32g4xx_hal_pwr_ex.c ****     else
 184:Drivers/STM32G4xx_HAL_Driver/Src/stm32g4xx_hal_pwr_ex.c ****     {
 185:Drivers/STM32G4xx_HAL_Driver/Src/stm32g4xx_hal_pwr_ex.c ****       /* Enable Range 1 Boost (no issue if bit already reset) */
 186:Drivers/STM32G4xx_HAL_Driver/Src/stm32g4xx_hal_pwr_ex.c ****       CLEAR_BIT(PWR->CR5, PWR_CR5_R1MODE);
  91              		.loc 1 186 7 is_stmt 1 view .LVU17
  92 0012 3B4A     		ldr	r2, .L23
  93 0014 D2F88030 		ldr	r3, [r2, #128]
  94 0018 23F48073 		bic	r3, r3, #256
  95 001c C2F88030 		str	r3, [r2, #128]
 187:Drivers/STM32G4xx_HAL_Driver/Src/stm32g4xx_hal_pwr_ex.c ****     }
 188:Drivers/STM32G4xx_HAL_Driver/Src/stm32g4xx_hal_pwr_ex.c ****   }
 189:Drivers/STM32G4xx_HAL_Driver/Src/stm32g4xx_hal_pwr_ex.c ****   else if (VoltageScaling == PWR_REGULATOR_VOLTAGE_SCALE1)
 190:Drivers/STM32G4xx_HAL_Driver/Src/stm32g4xx_hal_pwr_ex.c ****   {
 191:Drivers/STM32G4xx_HAL_Driver/Src/stm32g4xx_hal_pwr_ex.c ****     /* If current range is range 2 */
 192:Drivers/STM32G4xx_HAL_Driver/Src/stm32g4xx_hal_pwr_ex.c ****     if (READ_BIT(PWR->CR1, PWR_CR1_VOS) == PWR_REGULATOR_VOLTAGE_SCALE2)
ARM GAS  /tmp/cc2lDYQJ.s 			page 6


 193:Drivers/STM32G4xx_HAL_Driver/Src/stm32g4xx_hal_pwr_ex.c ****     {
 194:Drivers/STM32G4xx_HAL_Driver/Src/stm32g4xx_hal_pwr_ex.c ****       /* Make sure Range 1 Boost is disabled */
 195:Drivers/STM32G4xx_HAL_Driver/Src/stm32g4xx_hal_pwr_ex.c ****       SET_BIT(PWR->CR5, PWR_CR5_R1MODE);
 196:Drivers/STM32G4xx_HAL_Driver/Src/stm32g4xx_hal_pwr_ex.c **** 
 197:Drivers/STM32G4xx_HAL_Driver/Src/stm32g4xx_hal_pwr_ex.c ****       /* Set Range 1 */
 198:Drivers/STM32G4xx_HAL_Driver/Src/stm32g4xx_hal_pwr_ex.c ****       MODIFY_REG(PWR->CR1, PWR_CR1_VOS, PWR_REGULATOR_VOLTAGE_SCALE1);
 199:Drivers/STM32G4xx_HAL_Driver/Src/stm32g4xx_hal_pwr_ex.c **** 
 200:Drivers/STM32G4xx_HAL_Driver/Src/stm32g4xx_hal_pwr_ex.c ****       /* Wait until VOSF is cleared */
 201:Drivers/STM32G4xx_HAL_Driver/Src/stm32g4xx_hal_pwr_ex.c ****       wait_loop_index = ((PWR_FLAG_SETTING_DELAY_US * SystemCoreClock) / 1000000U) + 1U;
 202:Drivers/STM32G4xx_HAL_Driver/Src/stm32g4xx_hal_pwr_ex.c ****       while ((HAL_IS_BIT_SET(PWR->SR2, PWR_SR2_VOSF)) && (wait_loop_index != 0U))
 203:Drivers/STM32G4xx_HAL_Driver/Src/stm32g4xx_hal_pwr_ex.c ****       {
 204:Drivers/STM32G4xx_HAL_Driver/Src/stm32g4xx_hal_pwr_ex.c ****         wait_loop_index--;
 205:Drivers/STM32G4xx_HAL_Driver/Src/stm32g4xx_hal_pwr_ex.c ****       }
 206:Drivers/STM32G4xx_HAL_Driver/Src/stm32g4xx_hal_pwr_ex.c ****       if (HAL_IS_BIT_SET(PWR->SR2, PWR_SR2_VOSF))
 207:Drivers/STM32G4xx_HAL_Driver/Src/stm32g4xx_hal_pwr_ex.c ****       {
 208:Drivers/STM32G4xx_HAL_Driver/Src/stm32g4xx_hal_pwr_ex.c ****         return HAL_TIMEOUT;
 209:Drivers/STM32G4xx_HAL_Driver/Src/stm32g4xx_hal_pwr_ex.c ****       }
 210:Drivers/STM32G4xx_HAL_Driver/Src/stm32g4xx_hal_pwr_ex.c ****     }
 211:Drivers/STM32G4xx_HAL_Driver/Src/stm32g4xx_hal_pwr_ex.c ****      /* If current range is range 1 normal or boost mode */
 212:Drivers/STM32G4xx_HAL_Driver/Src/stm32g4xx_hal_pwr_ex.c ****     else
 213:Drivers/STM32G4xx_HAL_Driver/Src/stm32g4xx_hal_pwr_ex.c ****     {
 214:Drivers/STM32G4xx_HAL_Driver/Src/stm32g4xx_hal_pwr_ex.c ****       /* Disable Range 1 Boost (no issue if bit already set) */
 215:Drivers/STM32G4xx_HAL_Driver/Src/stm32g4xx_hal_pwr_ex.c ****       SET_BIT(PWR->CR5, PWR_CR5_R1MODE);
 216:Drivers/STM32G4xx_HAL_Driver/Src/stm32g4xx_hal_pwr_ex.c ****     }
 217:Drivers/STM32G4xx_HAL_Driver/Src/stm32g4xx_hal_pwr_ex.c ****   }
 218:Drivers/STM32G4xx_HAL_Driver/Src/stm32g4xx_hal_pwr_ex.c ****   else
 219:Drivers/STM32G4xx_HAL_Driver/Src/stm32g4xx_hal_pwr_ex.c ****   {
 220:Drivers/STM32G4xx_HAL_Driver/Src/stm32g4xx_hal_pwr_ex.c ****     /* Set Range 2 */
 221:Drivers/STM32G4xx_HAL_Driver/Src/stm32g4xx_hal_pwr_ex.c ****     MODIFY_REG(PWR->CR1, PWR_CR1_VOS, PWR_REGULATOR_VOLTAGE_SCALE2);
 222:Drivers/STM32G4xx_HAL_Driver/Src/stm32g4xx_hal_pwr_ex.c ****     /* No need to wait for VOSF to be cleared for this transition */
 223:Drivers/STM32G4xx_HAL_Driver/Src/stm32g4xx_hal_pwr_ex.c ****     /* PWR_CR5_R1MODE bit setting has no effect in Range 2        */
 224:Drivers/STM32G4xx_HAL_Driver/Src/stm32g4xx_hal_pwr_ex.c ****   }
 225:Drivers/STM32G4xx_HAL_Driver/Src/stm32g4xx_hal_pwr_ex.c **** 
 226:Drivers/STM32G4xx_HAL_Driver/Src/stm32g4xx_hal_pwr_ex.c ****   return HAL_OK;
  96              		.loc 1 226 10 is_stmt 0 view .LVU18
  97 0020 0020     		movs	r0, #0
  98              	.LVL1:
  99              		.loc 1 226 10 view .LVU19
 100 0022 7047     		bx	lr
 101              	.LVL2:
 102              	.L20:
 166:Drivers/STM32G4xx_HAL_Driver/Src/stm32g4xx_hal_pwr_ex.c **** 
 103              		.loc 1 166 7 is_stmt 1 view .LVU20
 104 0024 364A     		ldr	r2, .L23
 105 0026 D2F88030 		ldr	r3, [r2, #128]
 106 002a 23F48073 		bic	r3, r3, #256
 107 002e C2F88030 		str	r3, [r2, #128]
 169:Drivers/STM32G4xx_HAL_Driver/Src/stm32g4xx_hal_pwr_ex.c **** 
 108              		.loc 1 169 7 view .LVU21
 109 0032 1368     		ldr	r3, [r2]
 110 0034 23F4C063 		bic	r3, r3, #1536
 111 0038 43F40073 		orr	r3, r3, #512
 112 003c 1360     		str	r3, [r2]
 172:Drivers/STM32G4xx_HAL_Driver/Src/stm32g4xx_hal_pwr_ex.c ****       while ((HAL_IS_BIT_SET(PWR->SR2, PWR_SR2_VOSF)) && (wait_loop_index != 0U))
 113              		.loc 1 172 7 view .LVU22
 172:Drivers/STM32G4xx_HAL_Driver/Src/stm32g4xx_hal_pwr_ex.c ****       while ((HAL_IS_BIT_SET(PWR->SR2, PWR_SR2_VOSF)) && (wait_loop_index != 0U))
 114              		.loc 1 172 53 is_stmt 0 view .LVU23
ARM GAS  /tmp/cc2lDYQJ.s 			page 7


 115 003e 314B     		ldr	r3, .L23+4
 116 0040 1B68     		ldr	r3, [r3]
 117 0042 3222     		movs	r2, #50
 118 0044 02FB03F3 		mul	r3, r2, r3
 172:Drivers/STM32G4xx_HAL_Driver/Src/stm32g4xx_hal_pwr_ex.c ****       while ((HAL_IS_BIT_SET(PWR->SR2, PWR_SR2_VOSF)) && (wait_loop_index != 0U))
 119              		.loc 1 172 72 view .LVU24
 120 0048 2F4A     		ldr	r2, .L23+8
 121 004a A2FB0323 		umull	r2, r3, r2, r3
 122 004e 9B0C     		lsrs	r3, r3, #18
 172:Drivers/STM32G4xx_HAL_Driver/Src/stm32g4xx_hal_pwr_ex.c ****       while ((HAL_IS_BIT_SET(PWR->SR2, PWR_SR2_VOSF)) && (wait_loop_index != 0U))
 123              		.loc 1 172 23 view .LVU25
 124 0050 0133     		adds	r3, r3, #1
 125              	.LVL3:
 173:Drivers/STM32G4xx_HAL_Driver/Src/stm32g4xx_hal_pwr_ex.c ****       {
 126              		.loc 1 173 7 is_stmt 1 view .LVU26
 173:Drivers/STM32G4xx_HAL_Driver/Src/stm32g4xx_hal_pwr_ex.c ****       {
 127              		.loc 1 173 13 is_stmt 0 view .LVU27
 128 0052 00E0     		b	.L9
 129              	.L11:
 175:Drivers/STM32G4xx_HAL_Driver/Src/stm32g4xx_hal_pwr_ex.c ****       }
 130              		.loc 1 175 9 is_stmt 1 view .LVU28
 175:Drivers/STM32G4xx_HAL_Driver/Src/stm32g4xx_hal_pwr_ex.c ****       }
 131              		.loc 1 175 24 is_stmt 0 view .LVU29
 132 0054 013B     		subs	r3, r3, #1
 133              	.LVL4:
 134              	.L9:
 173:Drivers/STM32G4xx_HAL_Driver/Src/stm32g4xx_hal_pwr_ex.c ****       {
 135              		.loc 1 173 55 is_stmt 1 view .LVU30
 173:Drivers/STM32G4xx_HAL_Driver/Src/stm32g4xx_hal_pwr_ex.c ****       {
 136              		.loc 1 173 15 is_stmt 0 view .LVU31
 137 0056 2A4A     		ldr	r2, .L23
 138 0058 5269     		ldr	r2, [r2, #20]
 173:Drivers/STM32G4xx_HAL_Driver/Src/stm32g4xx_hal_pwr_ex.c ****       {
 139              		.loc 1 173 55 view .LVU32
 140 005a 12F4806F 		tst	r2, #1024
 141 005e 01D0     		beq	.L10
 173:Drivers/STM32G4xx_HAL_Driver/Src/stm32g4xx_hal_pwr_ex.c ****       {
 142              		.loc 1 173 55 discriminator 1 view .LVU33
 143 0060 002B     		cmp	r3, #0
 144 0062 F7D1     		bne	.L11
 145              	.L10:
 177:Drivers/STM32G4xx_HAL_Driver/Src/stm32g4xx_hal_pwr_ex.c ****       {
 146              		.loc 1 177 7 is_stmt 1 view .LVU34
 177:Drivers/STM32G4xx_HAL_Driver/Src/stm32g4xx_hal_pwr_ex.c ****       {
 147              		.loc 1 177 11 is_stmt 0 view .LVU35
 148 0064 264B     		ldr	r3, .L23
 149              	.LVL5:
 177:Drivers/STM32G4xx_HAL_Driver/Src/stm32g4xx_hal_pwr_ex.c ****       {
 150              		.loc 1 177 11 view .LVU36
 151 0066 5B69     		ldr	r3, [r3, #20]
 177:Drivers/STM32G4xx_HAL_Driver/Src/stm32g4xx_hal_pwr_ex.c ****       {
 152              		.loc 1 177 10 view .LVU37
 153 0068 13F4806F 		tst	r3, #1024
 154 006c 44D1     		bne	.L18
 155              		.loc 1 226 10 view .LVU38
 156 006e 0020     		movs	r0, #0
 157              	.LVL6:
ARM GAS  /tmp/cc2lDYQJ.s 			page 8


 158              		.loc 1 226 10 view .LVU39
 159 0070 7047     		bx	lr
 160              	.LVL7:
 161              	.L7:
 189:Drivers/STM32G4xx_HAL_Driver/Src/stm32g4xx_hal_pwr_ex.c ****   {
 162              		.loc 1 189 8 is_stmt 1 view .LVU40
 189:Drivers/STM32G4xx_HAL_Driver/Src/stm32g4xx_hal_pwr_ex.c ****   {
 163              		.loc 1 189 11 is_stmt 0 view .LVU41
 164 0072 B0F5007F 		cmp	r0, #512
 165 0076 08D0     		beq	.L21
 221:Drivers/STM32G4xx_HAL_Driver/Src/stm32g4xx_hal_pwr_ex.c ****     /* No need to wait for VOSF to be cleared for this transition */
 166              		.loc 1 221 5 is_stmt 1 view .LVU42
 167 0078 214A     		ldr	r2, .L23
 168 007a 1368     		ldr	r3, [r2]
 169 007c 23F4C063 		bic	r3, r3, #1536
 170 0080 43F48063 		orr	r3, r3, #1024
 171 0084 1360     		str	r3, [r2]
 172              		.loc 1 226 10 is_stmt 0 view .LVU43
 173 0086 0020     		movs	r0, #0
 174              	.LVL8:
 175              		.loc 1 226 10 view .LVU44
 176 0088 7047     		bx	lr
 177              	.LVL9:
 178              	.L21:
 192:Drivers/STM32G4xx_HAL_Driver/Src/stm32g4xx_hal_pwr_ex.c ****     {
 179              		.loc 1 192 5 is_stmt 1 view .LVU45
 192:Drivers/STM32G4xx_HAL_Driver/Src/stm32g4xx_hal_pwr_ex.c ****     {
 180              		.loc 1 192 9 is_stmt 0 view .LVU46
 181 008a 1D4B     		ldr	r3, .L23
 182 008c 1B68     		ldr	r3, [r3]
 183 008e 03F4C063 		and	r3, r3, #1536
 192:Drivers/STM32G4xx_HAL_Driver/Src/stm32g4xx_hal_pwr_ex.c ****     {
 184              		.loc 1 192 8 view .LVU47
 185 0092 B3F5806F 		cmp	r3, #1024
 186 0096 08D0     		beq	.L22
 215:Drivers/STM32G4xx_HAL_Driver/Src/stm32g4xx_hal_pwr_ex.c ****     }
 187              		.loc 1 215 7 is_stmt 1 view .LVU48
 188 0098 194A     		ldr	r2, .L23
 189 009a D2F88030 		ldr	r3, [r2, #128]
 190 009e 43F48073 		orr	r3, r3, #256
 191 00a2 C2F88030 		str	r3, [r2, #128]
 192              		.loc 1 226 10 is_stmt 0 view .LVU49
 193 00a6 0020     		movs	r0, #0
 194              	.LVL10:
 195              		.loc 1 226 10 view .LVU50
 196 00a8 7047     		bx	lr
 197              	.LVL11:
 198              	.L22:
 195:Drivers/STM32G4xx_HAL_Driver/Src/stm32g4xx_hal_pwr_ex.c **** 
 199              		.loc 1 195 7 is_stmt 1 view .LVU51
 200 00aa 154A     		ldr	r2, .L23
 201 00ac D2F88030 		ldr	r3, [r2, #128]
 202 00b0 43F48073 		orr	r3, r3, #256
 203 00b4 C2F88030 		str	r3, [r2, #128]
 198:Drivers/STM32G4xx_HAL_Driver/Src/stm32g4xx_hal_pwr_ex.c **** 
 204              		.loc 1 198 7 view .LVU52
 205 00b8 1368     		ldr	r3, [r2]
ARM GAS  /tmp/cc2lDYQJ.s 			page 9


 206 00ba 23F4C063 		bic	r3, r3, #1536
 207 00be 43F40073 		orr	r3, r3, #512
 208 00c2 1360     		str	r3, [r2]
 201:Drivers/STM32G4xx_HAL_Driver/Src/stm32g4xx_hal_pwr_ex.c ****       while ((HAL_IS_BIT_SET(PWR->SR2, PWR_SR2_VOSF)) && (wait_loop_index != 0U))
 209              		.loc 1 201 7 view .LVU53
 201:Drivers/STM32G4xx_HAL_Driver/Src/stm32g4xx_hal_pwr_ex.c ****       while ((HAL_IS_BIT_SET(PWR->SR2, PWR_SR2_VOSF)) && (wait_loop_index != 0U))
 210              		.loc 1 201 53 is_stmt 0 view .LVU54
 211 00c4 0F4B     		ldr	r3, .L23+4
 212 00c6 1B68     		ldr	r3, [r3]
 213 00c8 3222     		movs	r2, #50
 214 00ca 02FB03F3 		mul	r3, r2, r3
 201:Drivers/STM32G4xx_HAL_Driver/Src/stm32g4xx_hal_pwr_ex.c ****       while ((HAL_IS_BIT_SET(PWR->SR2, PWR_SR2_VOSF)) && (wait_loop_index != 0U))
 215              		.loc 1 201 72 view .LVU55
 216 00ce 0E4A     		ldr	r2, .L23+8
 217 00d0 A2FB0323 		umull	r2, r3, r2, r3
 218 00d4 9B0C     		lsrs	r3, r3, #18
 201:Drivers/STM32G4xx_HAL_Driver/Src/stm32g4xx_hal_pwr_ex.c ****       while ((HAL_IS_BIT_SET(PWR->SR2, PWR_SR2_VOSF)) && (wait_loop_index != 0U))
 219              		.loc 1 201 23 view .LVU56
 220 00d6 0133     		adds	r3, r3, #1
 221              	.LVL12:
 202:Drivers/STM32G4xx_HAL_Driver/Src/stm32g4xx_hal_pwr_ex.c ****       {
 222              		.loc 1 202 7 is_stmt 1 view .LVU57
 202:Drivers/STM32G4xx_HAL_Driver/Src/stm32g4xx_hal_pwr_ex.c ****       {
 223              		.loc 1 202 13 is_stmt 0 view .LVU58
 224 00d8 00E0     		b	.L15
 225              	.L17:
 204:Drivers/STM32G4xx_HAL_Driver/Src/stm32g4xx_hal_pwr_ex.c ****       }
 226              		.loc 1 204 9 is_stmt 1 view .LVU59
 204:Drivers/STM32G4xx_HAL_Driver/Src/stm32g4xx_hal_pwr_ex.c ****       }
 227              		.loc 1 204 24 is_stmt 0 view .LVU60
 228 00da 013B     		subs	r3, r3, #1
 229              	.LVL13:
 230              	.L15:
 202:Drivers/STM32G4xx_HAL_Driver/Src/stm32g4xx_hal_pwr_ex.c ****       {
 231              		.loc 1 202 55 is_stmt 1 view .LVU61
 202:Drivers/STM32G4xx_HAL_Driver/Src/stm32g4xx_hal_pwr_ex.c ****       {
 232              		.loc 1 202 15 is_stmt 0 view .LVU62
 233 00dc 084A     		ldr	r2, .L23
 234 00de 5269     		ldr	r2, [r2, #20]
 202:Drivers/STM32G4xx_HAL_Driver/Src/stm32g4xx_hal_pwr_ex.c ****       {
 235              		.loc 1 202 55 view .LVU63
 236 00e0 12F4806F 		tst	r2, #1024
 237 00e4 01D0     		beq	.L16
 202:Drivers/STM32G4xx_HAL_Driver/Src/stm32g4xx_hal_pwr_ex.c ****       {
 238              		.loc 1 202 55 discriminator 1 view .LVU64
 239 00e6 002B     		cmp	r3, #0
 240 00e8 F7D1     		bne	.L17
 241              	.L16:
 206:Drivers/STM32G4xx_HAL_Driver/Src/stm32g4xx_hal_pwr_ex.c ****       {
 242              		.loc 1 206 7 is_stmt 1 view .LVU65
 206:Drivers/STM32G4xx_HAL_Driver/Src/stm32g4xx_hal_pwr_ex.c ****       {
 243              		.loc 1 206 11 is_stmt 0 view .LVU66
 244 00ea 054B     		ldr	r3, .L23
 245              	.LVL14:
 206:Drivers/STM32G4xx_HAL_Driver/Src/stm32g4xx_hal_pwr_ex.c ****       {
 246              		.loc 1 206 11 view .LVU67
 247 00ec 5B69     		ldr	r3, [r3, #20]
ARM GAS  /tmp/cc2lDYQJ.s 			page 10


 206:Drivers/STM32G4xx_HAL_Driver/Src/stm32g4xx_hal_pwr_ex.c ****       {
 248              		.loc 1 206 10 view .LVU68
 249 00ee 13F4806F 		tst	r3, #1024
 250 00f2 03D1     		bne	.L19
 251              		.loc 1 226 10 view .LVU69
 252 00f4 0020     		movs	r0, #0
 253              	.LVL15:
 254              		.loc 1 226 10 view .LVU70
 255 00f6 7047     		bx	lr
 256              	.LVL16:
 257              	.L18:
 179:Drivers/STM32G4xx_HAL_Driver/Src/stm32g4xx_hal_pwr_ex.c ****       }
 258              		.loc 1 179 16 view .LVU71
 259 00f8 0320     		movs	r0, #3
 260              	.LVL17:
 179:Drivers/STM32G4xx_HAL_Driver/Src/stm32g4xx_hal_pwr_ex.c ****       }
 261              		.loc 1 179 16 view .LVU72
 262 00fa 7047     		bx	lr
 263              	.LVL18:
 264              	.L19:
 208:Drivers/STM32G4xx_HAL_Driver/Src/stm32g4xx_hal_pwr_ex.c ****       }
 265              		.loc 1 208 16 view .LVU73
 266 00fc 0320     		movs	r0, #3
 267              	.LVL19:
 227:Drivers/STM32G4xx_HAL_Driver/Src/stm32g4xx_hal_pwr_ex.c **** }
 268              		.loc 1 227 1 view .LVU74
 269 00fe 7047     		bx	lr
 270              	.L24:
 271              		.align	2
 272              	.L23:
 273 0100 00700040 		.word	1073770496
 274 0104 00000000 		.word	SystemCoreClock
 275 0108 83DE1B43 		.word	1125899907
 276              		.cfi_endproc
 277              	.LFE330:
 279              		.section	.text.HAL_PWREx_EnableBatteryCharging,"ax",%progbits
 280              		.align	1
 281              		.global	HAL_PWREx_EnableBatteryCharging
 282              		.syntax unified
 283              		.thumb
 284              		.thumb_func
 286              	HAL_PWREx_EnableBatteryCharging:
 287              	.LVL20:
 288              	.LFB331:
 228:Drivers/STM32G4xx_HAL_Driver/Src/stm32g4xx_hal_pwr_ex.c **** 
 229:Drivers/STM32G4xx_HAL_Driver/Src/stm32g4xx_hal_pwr_ex.c **** 
 230:Drivers/STM32G4xx_HAL_Driver/Src/stm32g4xx_hal_pwr_ex.c **** /**
 231:Drivers/STM32G4xx_HAL_Driver/Src/stm32g4xx_hal_pwr_ex.c ****   * @brief Enable battery charging.
 232:Drivers/STM32G4xx_HAL_Driver/Src/stm32g4xx_hal_pwr_ex.c ****   *        When VDD is present, charge the external battery on VBAT through an internal resistor.
 233:Drivers/STM32G4xx_HAL_Driver/Src/stm32g4xx_hal_pwr_ex.c ****   * @param  ResistorSelection: specifies the resistor impedance.
 234:Drivers/STM32G4xx_HAL_Driver/Src/stm32g4xx_hal_pwr_ex.c ****   *          This parameter can be one of the following values:
 235:Drivers/STM32G4xx_HAL_Driver/Src/stm32g4xx_hal_pwr_ex.c ****   *            @arg @ref PWR_BATTERY_CHARGING_RESISTOR_5     5 kOhms resistor
 236:Drivers/STM32G4xx_HAL_Driver/Src/stm32g4xx_hal_pwr_ex.c ****   *            @arg @ref PWR_BATTERY_CHARGING_RESISTOR_1_5 1.5 kOhms resistor
 237:Drivers/STM32G4xx_HAL_Driver/Src/stm32g4xx_hal_pwr_ex.c ****   * @retval None
 238:Drivers/STM32G4xx_HAL_Driver/Src/stm32g4xx_hal_pwr_ex.c ****   */
 239:Drivers/STM32G4xx_HAL_Driver/Src/stm32g4xx_hal_pwr_ex.c **** void HAL_PWREx_EnableBatteryCharging(uint32_t ResistorSelection)
 240:Drivers/STM32G4xx_HAL_Driver/Src/stm32g4xx_hal_pwr_ex.c **** {
ARM GAS  /tmp/cc2lDYQJ.s 			page 11


 289              		.loc 1 240 1 is_stmt 1 view -0
 290              		.cfi_startproc
 291              		@ args = 0, pretend = 0, frame = 0
 292              		@ frame_needed = 0, uses_anonymous_args = 0
 293              		@ link register save eliminated.
 241:Drivers/STM32G4xx_HAL_Driver/Src/stm32g4xx_hal_pwr_ex.c ****   assert_param(IS_PWR_BATTERY_RESISTOR_SELECT(ResistorSelection));
 294              		.loc 1 241 3 view .LVU76
 242:Drivers/STM32G4xx_HAL_Driver/Src/stm32g4xx_hal_pwr_ex.c **** 
 243:Drivers/STM32G4xx_HAL_Driver/Src/stm32g4xx_hal_pwr_ex.c ****   /* Specify resistor selection */
 244:Drivers/STM32G4xx_HAL_Driver/Src/stm32g4xx_hal_pwr_ex.c ****   MODIFY_REG(PWR->CR4, PWR_CR4_VBRS, ResistorSelection);
 295              		.loc 1 244 3 view .LVU77
 296 0000 054A     		ldr	r2, .L26
 297 0002 D368     		ldr	r3, [r2, #12]
 298 0004 23F40073 		bic	r3, r3, #512
 299 0008 0343     		orrs	r3, r3, r0
 300 000a D360     		str	r3, [r2, #12]
 245:Drivers/STM32G4xx_HAL_Driver/Src/stm32g4xx_hal_pwr_ex.c **** 
 246:Drivers/STM32G4xx_HAL_Driver/Src/stm32g4xx_hal_pwr_ex.c ****   /* Enable battery charging */
 247:Drivers/STM32G4xx_HAL_Driver/Src/stm32g4xx_hal_pwr_ex.c ****   SET_BIT(PWR->CR4, PWR_CR4_VBE);
 301              		.loc 1 247 3 view .LVU78
 302 000c D368     		ldr	r3, [r2, #12]
 303 000e 43F48073 		orr	r3, r3, #256
 304 0012 D360     		str	r3, [r2, #12]
 248:Drivers/STM32G4xx_HAL_Driver/Src/stm32g4xx_hal_pwr_ex.c **** }
 305              		.loc 1 248 1 is_stmt 0 view .LVU79
 306 0014 7047     		bx	lr
 307              	.L27:
 308 0016 00BF     		.align	2
 309              	.L26:
 310 0018 00700040 		.word	1073770496
 311              		.cfi_endproc
 312              	.LFE331:
 314              		.section	.text.HAL_PWREx_DisableBatteryCharging,"ax",%progbits
 315              		.align	1
 316              		.global	HAL_PWREx_DisableBatteryCharging
 317              		.syntax unified
 318              		.thumb
 319              		.thumb_func
 321              	HAL_PWREx_DisableBatteryCharging:
 322              	.LFB332:
 249:Drivers/STM32G4xx_HAL_Driver/Src/stm32g4xx_hal_pwr_ex.c **** 
 250:Drivers/STM32G4xx_HAL_Driver/Src/stm32g4xx_hal_pwr_ex.c **** 
 251:Drivers/STM32G4xx_HAL_Driver/Src/stm32g4xx_hal_pwr_ex.c **** /**
 252:Drivers/STM32G4xx_HAL_Driver/Src/stm32g4xx_hal_pwr_ex.c ****   * @brief Disable battery charging.
 253:Drivers/STM32G4xx_HAL_Driver/Src/stm32g4xx_hal_pwr_ex.c ****   * @retval None
 254:Drivers/STM32G4xx_HAL_Driver/Src/stm32g4xx_hal_pwr_ex.c ****   */
 255:Drivers/STM32G4xx_HAL_Driver/Src/stm32g4xx_hal_pwr_ex.c **** void HAL_PWREx_DisableBatteryCharging(void)
 256:Drivers/STM32G4xx_HAL_Driver/Src/stm32g4xx_hal_pwr_ex.c **** {
 323              		.loc 1 256 1 is_stmt 1 view -0
 324              		.cfi_startproc
 325              		@ args = 0, pretend = 0, frame = 0
 326              		@ frame_needed = 0, uses_anonymous_args = 0
 327              		@ link register save eliminated.
 257:Drivers/STM32G4xx_HAL_Driver/Src/stm32g4xx_hal_pwr_ex.c ****   CLEAR_BIT(PWR->CR4, PWR_CR4_VBE);
 328              		.loc 1 257 3 view .LVU81
 329 0000 024A     		ldr	r2, .L29
 330 0002 D368     		ldr	r3, [r2, #12]
ARM GAS  /tmp/cc2lDYQJ.s 			page 12


 331 0004 23F48073 		bic	r3, r3, #256
 332 0008 D360     		str	r3, [r2, #12]
 258:Drivers/STM32G4xx_HAL_Driver/Src/stm32g4xx_hal_pwr_ex.c **** }
 333              		.loc 1 258 1 is_stmt 0 view .LVU82
 334 000a 7047     		bx	lr
 335              	.L30:
 336              		.align	2
 337              	.L29:
 338 000c 00700040 		.word	1073770496
 339              		.cfi_endproc
 340              	.LFE332:
 342              		.section	.text.HAL_PWREx_EnableInternalWakeUpLine,"ax",%progbits
 343              		.align	1
 344              		.global	HAL_PWREx_EnableInternalWakeUpLine
 345              		.syntax unified
 346              		.thumb
 347              		.thumb_func
 349              	HAL_PWREx_EnableInternalWakeUpLine:
 350              	.LFB333:
 259:Drivers/STM32G4xx_HAL_Driver/Src/stm32g4xx_hal_pwr_ex.c **** 
 260:Drivers/STM32G4xx_HAL_Driver/Src/stm32g4xx_hal_pwr_ex.c **** 
 261:Drivers/STM32G4xx_HAL_Driver/Src/stm32g4xx_hal_pwr_ex.c **** /**
 262:Drivers/STM32G4xx_HAL_Driver/Src/stm32g4xx_hal_pwr_ex.c ****   * @brief Enable Internal Wake-up Line.
 263:Drivers/STM32G4xx_HAL_Driver/Src/stm32g4xx_hal_pwr_ex.c ****   * @retval None
 264:Drivers/STM32G4xx_HAL_Driver/Src/stm32g4xx_hal_pwr_ex.c ****   */
 265:Drivers/STM32G4xx_HAL_Driver/Src/stm32g4xx_hal_pwr_ex.c **** void HAL_PWREx_EnableInternalWakeUpLine(void)
 266:Drivers/STM32G4xx_HAL_Driver/Src/stm32g4xx_hal_pwr_ex.c **** {
 351              		.loc 1 266 1 is_stmt 1 view -0
 352              		.cfi_startproc
 353              		@ args = 0, pretend = 0, frame = 0
 354              		@ frame_needed = 0, uses_anonymous_args = 0
 355              		@ link register save eliminated.
 267:Drivers/STM32G4xx_HAL_Driver/Src/stm32g4xx_hal_pwr_ex.c ****   SET_BIT(PWR->CR3, PWR_CR3_EIWF);
 356              		.loc 1 267 3 view .LVU84
 357 0000 024A     		ldr	r2, .L32
 358 0002 9368     		ldr	r3, [r2, #8]
 359 0004 43F40043 		orr	r3, r3, #32768
 360 0008 9360     		str	r3, [r2, #8]
 268:Drivers/STM32G4xx_HAL_Driver/Src/stm32g4xx_hal_pwr_ex.c **** }
 361              		.loc 1 268 1 is_stmt 0 view .LVU85
 362 000a 7047     		bx	lr
 363              	.L33:
 364              		.align	2
 365              	.L32:
 366 000c 00700040 		.word	1073770496
 367              		.cfi_endproc
 368              	.LFE333:
 370              		.section	.text.HAL_PWREx_DisableInternalWakeUpLine,"ax",%progbits
 371              		.align	1
 372              		.global	HAL_PWREx_DisableInternalWakeUpLine
 373              		.syntax unified
 374              		.thumb
 375              		.thumb_func
 377              	HAL_PWREx_DisableInternalWakeUpLine:
 378              	.LFB334:
 269:Drivers/STM32G4xx_HAL_Driver/Src/stm32g4xx_hal_pwr_ex.c **** 
 270:Drivers/STM32G4xx_HAL_Driver/Src/stm32g4xx_hal_pwr_ex.c **** 
ARM GAS  /tmp/cc2lDYQJ.s 			page 13


 271:Drivers/STM32G4xx_HAL_Driver/Src/stm32g4xx_hal_pwr_ex.c **** /**
 272:Drivers/STM32G4xx_HAL_Driver/Src/stm32g4xx_hal_pwr_ex.c ****   * @brief Disable Internal Wake-up Line.
 273:Drivers/STM32G4xx_HAL_Driver/Src/stm32g4xx_hal_pwr_ex.c ****   * @retval None
 274:Drivers/STM32G4xx_HAL_Driver/Src/stm32g4xx_hal_pwr_ex.c ****   */
 275:Drivers/STM32G4xx_HAL_Driver/Src/stm32g4xx_hal_pwr_ex.c **** void HAL_PWREx_DisableInternalWakeUpLine(void)
 276:Drivers/STM32G4xx_HAL_Driver/Src/stm32g4xx_hal_pwr_ex.c **** {
 379              		.loc 1 276 1 is_stmt 1 view -0
 380              		.cfi_startproc
 381              		@ args = 0, pretend = 0, frame = 0
 382              		@ frame_needed = 0, uses_anonymous_args = 0
 383              		@ link register save eliminated.
 277:Drivers/STM32G4xx_HAL_Driver/Src/stm32g4xx_hal_pwr_ex.c ****   CLEAR_BIT(PWR->CR3, PWR_CR3_EIWF);
 384              		.loc 1 277 3 view .LVU87
 385 0000 024A     		ldr	r2, .L35
 386 0002 9368     		ldr	r3, [r2, #8]
 387 0004 23F40043 		bic	r3, r3, #32768
 388 0008 9360     		str	r3, [r2, #8]
 278:Drivers/STM32G4xx_HAL_Driver/Src/stm32g4xx_hal_pwr_ex.c **** }
 389              		.loc 1 278 1 is_stmt 0 view .LVU88
 390 000a 7047     		bx	lr
 391              	.L36:
 392              		.align	2
 393              	.L35:
 394 000c 00700040 		.word	1073770496
 395              		.cfi_endproc
 396              	.LFE334:
 398              		.section	.text.HAL_PWREx_EnableGPIOPullUp,"ax",%progbits
 399              		.align	1
 400              		.global	HAL_PWREx_EnableGPIOPullUp
 401              		.syntax unified
 402              		.thumb
 403              		.thumb_func
 405              	HAL_PWREx_EnableGPIOPullUp:
 406              	.LVL21:
 407              	.LFB335:
 279:Drivers/STM32G4xx_HAL_Driver/Src/stm32g4xx_hal_pwr_ex.c **** 
 280:Drivers/STM32G4xx_HAL_Driver/Src/stm32g4xx_hal_pwr_ex.c **** 
 281:Drivers/STM32G4xx_HAL_Driver/Src/stm32g4xx_hal_pwr_ex.c **** 
 282:Drivers/STM32G4xx_HAL_Driver/Src/stm32g4xx_hal_pwr_ex.c **** /**
 283:Drivers/STM32G4xx_HAL_Driver/Src/stm32g4xx_hal_pwr_ex.c ****   * @brief Enable GPIO pull-up state in Standby and Shutdown modes.
 284:Drivers/STM32G4xx_HAL_Driver/Src/stm32g4xx_hal_pwr_ex.c ****   * @note  Set the relevant PUy bits of PWR_PUCRx register to configure the I/O in
 285:Drivers/STM32G4xx_HAL_Driver/Src/stm32g4xx_hal_pwr_ex.c ****   *        pull-up state in Standby and Shutdown modes.
 286:Drivers/STM32G4xx_HAL_Driver/Src/stm32g4xx_hal_pwr_ex.c ****   * @note  This state is effective in Standby and Shutdown modes only if APC bit
 287:Drivers/STM32G4xx_HAL_Driver/Src/stm32g4xx_hal_pwr_ex.c ****   *        is set through HAL_PWREx_EnablePullUpPullDownConfig() API.
 288:Drivers/STM32G4xx_HAL_Driver/Src/stm32g4xx_hal_pwr_ex.c ****   * @note  The configuration is lost when exiting the Shutdown mode due to the
 289:Drivers/STM32G4xx_HAL_Driver/Src/stm32g4xx_hal_pwr_ex.c ****   *        power-on reset, maintained when exiting the Standby mode.
 290:Drivers/STM32G4xx_HAL_Driver/Src/stm32g4xx_hal_pwr_ex.c ****   * @note  To avoid any conflict at Standby and Shutdown modes exits, the corresponding
 291:Drivers/STM32G4xx_HAL_Driver/Src/stm32g4xx_hal_pwr_ex.c ****   *        PDy bit of PWR_PDCRx register is cleared unless it is reserved.
 292:Drivers/STM32G4xx_HAL_Driver/Src/stm32g4xx_hal_pwr_ex.c ****   * @note  Even if a PUy bit to set is reserved, the other PUy bits entered as input
 293:Drivers/STM32G4xx_HAL_Driver/Src/stm32g4xx_hal_pwr_ex.c ****   *        parameter at the same time are set.
 294:Drivers/STM32G4xx_HAL_Driver/Src/stm32g4xx_hal_pwr_ex.c ****   * @param  GPIO: Specify the IO port. This parameter can be PWR_GPIO_A, ..., PWR_GPIO_G
 295:Drivers/STM32G4xx_HAL_Driver/Src/stm32g4xx_hal_pwr_ex.c ****   *         (or PWR_GPIO_I depending on the devices) to select the GPIO peripheral.
 296:Drivers/STM32G4xx_HAL_Driver/Src/stm32g4xx_hal_pwr_ex.c ****   * @param  GPIONumber: Specify the I/O pins numbers.
 297:Drivers/STM32G4xx_HAL_Driver/Src/stm32g4xx_hal_pwr_ex.c ****   *         This parameter can be one of the following values:
 298:Drivers/STM32G4xx_HAL_Driver/Src/stm32g4xx_hal_pwr_ex.c ****   *         PWR_GPIO_BIT_0, ..., PWR_GPIO_BIT_15 (except for the port where less
 299:Drivers/STM32G4xx_HAL_Driver/Src/stm32g4xx_hal_pwr_ex.c ****   *         I/O pins are available) or the logical OR of several of them to set
 300:Drivers/STM32G4xx_HAL_Driver/Src/stm32g4xx_hal_pwr_ex.c ****   *         several bits for a given port in a single API call.
ARM GAS  /tmp/cc2lDYQJ.s 			page 14


 301:Drivers/STM32G4xx_HAL_Driver/Src/stm32g4xx_hal_pwr_ex.c ****   * @retval HAL Status
 302:Drivers/STM32G4xx_HAL_Driver/Src/stm32g4xx_hal_pwr_ex.c ****   */
 303:Drivers/STM32G4xx_HAL_Driver/Src/stm32g4xx_hal_pwr_ex.c **** HAL_StatusTypeDef HAL_PWREx_EnableGPIOPullUp(uint32_t GPIO, uint32_t GPIONumber)
 304:Drivers/STM32G4xx_HAL_Driver/Src/stm32g4xx_hal_pwr_ex.c **** {
 408              		.loc 1 304 1 is_stmt 1 view -0
 409              		.cfi_startproc
 410              		@ args = 0, pretend = 0, frame = 0
 411              		@ frame_needed = 0, uses_anonymous_args = 0
 412              		@ link register save eliminated.
 305:Drivers/STM32G4xx_HAL_Driver/Src/stm32g4xx_hal_pwr_ex.c ****   HAL_StatusTypeDef status = HAL_OK;
 413              		.loc 1 305 3 view .LVU90
 306:Drivers/STM32G4xx_HAL_Driver/Src/stm32g4xx_hal_pwr_ex.c **** 
 307:Drivers/STM32G4xx_HAL_Driver/Src/stm32g4xx_hal_pwr_ex.c ****   assert_param(IS_PWR_GPIO(GPIO));
 414              		.loc 1 307 3 view .LVU91
 308:Drivers/STM32G4xx_HAL_Driver/Src/stm32g4xx_hal_pwr_ex.c ****   assert_param(IS_PWR_GPIO_BIT_NUMBER(GPIONumber));
 415              		.loc 1 308 3 view .LVU92
 309:Drivers/STM32G4xx_HAL_Driver/Src/stm32g4xx_hal_pwr_ex.c **** 
 310:Drivers/STM32G4xx_HAL_Driver/Src/stm32g4xx_hal_pwr_ex.c ****   switch (GPIO)
 416              		.loc 1 310 3 view .LVU93
 417 0000 0628     		cmp	r0, #6
 418 0002 55D8     		bhi	.L47
 419 0004 DFE800F0 		tbb	[pc, r0]
 420              	.L40:
 421 0008 04       		.byte	(.L46-.L40)/2
 422 0009 12       		.byte	(.L45-.L40)/2
 423 000a 1E       		.byte	(.L44-.L40)/2
 424 000b 28       		.byte	(.L43-.L40)/2
 425 000c 32       		.byte	(.L42-.L40)/2
 426 000d 3C       		.byte	(.L41-.L40)/2
 427 000e 4A       		.byte	(.L39-.L40)/2
 428 000f 00       		.p2align 1
 429              	.L46:
 311:Drivers/STM32G4xx_HAL_Driver/Src/stm32g4xx_hal_pwr_ex.c ****   {
 312:Drivers/STM32G4xx_HAL_Driver/Src/stm32g4xx_hal_pwr_ex.c ****     case PWR_GPIO_A:
 313:Drivers/STM32G4xx_HAL_Driver/Src/stm32g4xx_hal_pwr_ex.c ****        SET_BIT(PWR->PUCRA, (GPIONumber & (~(PWR_GPIO_BIT_14))));
 430              		.loc 1 313 8 view .LVU94
 431 0010 284B     		ldr	r3, .L48
 432 0012 1A6A     		ldr	r2, [r3, #32]
 433 0014 21F48040 		bic	r0, r1, #16384
 434              	.LVL22:
 435              		.loc 1 313 8 is_stmt 0 view .LVU95
 436 0018 0243     		orrs	r2, r2, r0
 437 001a 1A62     		str	r2, [r3, #32]
 314:Drivers/STM32G4xx_HAL_Driver/Src/stm32g4xx_hal_pwr_ex.c ****        CLEAR_BIT(PWR->PDCRA, (GPIONumber & (~(PWR_GPIO_BIT_13|PWR_GPIO_BIT_15))));
 438              		.loc 1 314 8 is_stmt 1 view .LVU96
 439 001c 5A6A     		ldr	r2, [r3, #36]
 440 001e 21F42041 		bic	r1, r1, #40960
 441              	.LVL23:
 442              		.loc 1 314 8 is_stmt 0 view .LVU97
 443 0022 22EA0102 		bic	r2, r2, r1
 444 0026 5A62     		str	r2, [r3, #36]
 315:Drivers/STM32G4xx_HAL_Driver/Src/stm32g4xx_hal_pwr_ex.c ****        break;
 445              		.loc 1 315 8 is_stmt 1 view .LVU98
 305:Drivers/STM32G4xx_HAL_Driver/Src/stm32g4xx_hal_pwr_ex.c **** 
 446              		.loc 1 305 21 is_stmt 0 view .LVU99
 447 0028 0020     		movs	r0, #0
 448              		.loc 1 315 8 view .LVU100
ARM GAS  /tmp/cc2lDYQJ.s 			page 15


 449 002a 7047     		bx	lr
 450              	.LVL24:
 451              	.L45:
 316:Drivers/STM32G4xx_HAL_Driver/Src/stm32g4xx_hal_pwr_ex.c ****     case PWR_GPIO_B:
 317:Drivers/STM32G4xx_HAL_Driver/Src/stm32g4xx_hal_pwr_ex.c ****        SET_BIT(PWR->PUCRB, GPIONumber);
 452              		.loc 1 317 8 is_stmt 1 view .LVU101
 453 002c 214B     		ldr	r3, .L48
 454 002e 9A6A     		ldr	r2, [r3, #40]
 455 0030 0A43     		orrs	r2, r2, r1
 456 0032 9A62     		str	r2, [r3, #40]
 318:Drivers/STM32G4xx_HAL_Driver/Src/stm32g4xx_hal_pwr_ex.c ****        CLEAR_BIT(PWR->PDCRB, (GPIONumber & (~(PWR_GPIO_BIT_4))));
 457              		.loc 1 318 8 view .LVU102
 458 0034 DA6A     		ldr	r2, [r3, #44]
 459 0036 21F01001 		bic	r1, r1, #16
 460              	.LVL25:
 461              		.loc 1 318 8 is_stmt 0 view .LVU103
 462 003a 22EA0102 		bic	r2, r2, r1
 463 003e DA62     		str	r2, [r3, #44]
 319:Drivers/STM32G4xx_HAL_Driver/Src/stm32g4xx_hal_pwr_ex.c ****        break;
 464              		.loc 1 319 8 is_stmt 1 view .LVU104
 305:Drivers/STM32G4xx_HAL_Driver/Src/stm32g4xx_hal_pwr_ex.c **** 
 465              		.loc 1 305 21 is_stmt 0 view .LVU105
 466 0040 0020     		movs	r0, #0
 467              	.LVL26:
 468              		.loc 1 319 8 view .LVU106
 469 0042 7047     		bx	lr
 470              	.LVL27:
 471              	.L44:
 320:Drivers/STM32G4xx_HAL_Driver/Src/stm32g4xx_hal_pwr_ex.c ****     case PWR_GPIO_C:
 321:Drivers/STM32G4xx_HAL_Driver/Src/stm32g4xx_hal_pwr_ex.c ****        SET_BIT(PWR->PUCRC, GPIONumber);
 472              		.loc 1 321 8 is_stmt 1 view .LVU107
 473 0044 1B4B     		ldr	r3, .L48
 474 0046 1A6B     		ldr	r2, [r3, #48]
 475 0048 0A43     		orrs	r2, r2, r1
 476 004a 1A63     		str	r2, [r3, #48]
 322:Drivers/STM32G4xx_HAL_Driver/Src/stm32g4xx_hal_pwr_ex.c ****        CLEAR_BIT(PWR->PDCRC, GPIONumber);
 477              		.loc 1 322 8 view .LVU108
 478 004c 5A6B     		ldr	r2, [r3, #52]
 479 004e 22EA0102 		bic	r2, r2, r1
 480 0052 5A63     		str	r2, [r3, #52]
 323:Drivers/STM32G4xx_HAL_Driver/Src/stm32g4xx_hal_pwr_ex.c ****        break;
 481              		.loc 1 323 8 view .LVU109
 305:Drivers/STM32G4xx_HAL_Driver/Src/stm32g4xx_hal_pwr_ex.c **** 
 482              		.loc 1 305 21 is_stmt 0 view .LVU110
 483 0054 0020     		movs	r0, #0
 484              	.LVL28:
 485              		.loc 1 323 8 view .LVU111
 486 0056 7047     		bx	lr
 487              	.LVL29:
 488              	.L43:
 324:Drivers/STM32G4xx_HAL_Driver/Src/stm32g4xx_hal_pwr_ex.c ****     case PWR_GPIO_D:
 325:Drivers/STM32G4xx_HAL_Driver/Src/stm32g4xx_hal_pwr_ex.c ****        SET_BIT(PWR->PUCRD, GPIONumber);
 489              		.loc 1 325 8 is_stmt 1 view .LVU112
 490 0058 164B     		ldr	r3, .L48
 491 005a 9A6B     		ldr	r2, [r3, #56]
 492 005c 0A43     		orrs	r2, r2, r1
 493 005e 9A63     		str	r2, [r3, #56]
ARM GAS  /tmp/cc2lDYQJ.s 			page 16


 326:Drivers/STM32G4xx_HAL_Driver/Src/stm32g4xx_hal_pwr_ex.c ****        CLEAR_BIT(PWR->PDCRD, GPIONumber);
 494              		.loc 1 326 8 view .LVU113
 495 0060 DA6B     		ldr	r2, [r3, #60]
 496 0062 22EA0102 		bic	r2, r2, r1
 497 0066 DA63     		str	r2, [r3, #60]
 327:Drivers/STM32G4xx_HAL_Driver/Src/stm32g4xx_hal_pwr_ex.c ****        break;
 498              		.loc 1 327 8 view .LVU114
 305:Drivers/STM32G4xx_HAL_Driver/Src/stm32g4xx_hal_pwr_ex.c **** 
 499              		.loc 1 305 21 is_stmt 0 view .LVU115
 500 0068 0020     		movs	r0, #0
 501              	.LVL30:
 502              		.loc 1 327 8 view .LVU116
 503 006a 7047     		bx	lr
 504              	.LVL31:
 505              	.L42:
 328:Drivers/STM32G4xx_HAL_Driver/Src/stm32g4xx_hal_pwr_ex.c ****     case PWR_GPIO_E:
 329:Drivers/STM32G4xx_HAL_Driver/Src/stm32g4xx_hal_pwr_ex.c ****        SET_BIT(PWR->PUCRE, GPIONumber);
 506              		.loc 1 329 8 is_stmt 1 view .LVU117
 507 006c 114B     		ldr	r3, .L48
 508 006e 1A6C     		ldr	r2, [r3, #64]
 509 0070 0A43     		orrs	r2, r2, r1
 510 0072 1A64     		str	r2, [r3, #64]
 330:Drivers/STM32G4xx_HAL_Driver/Src/stm32g4xx_hal_pwr_ex.c ****        CLEAR_BIT(PWR->PDCRE, GPIONumber);
 511              		.loc 1 330 8 view .LVU118
 512 0074 5A6C     		ldr	r2, [r3, #68]
 513 0076 22EA0102 		bic	r2, r2, r1
 514 007a 5A64     		str	r2, [r3, #68]
 331:Drivers/STM32G4xx_HAL_Driver/Src/stm32g4xx_hal_pwr_ex.c ****        break;
 515              		.loc 1 331 8 view .LVU119
 305:Drivers/STM32G4xx_HAL_Driver/Src/stm32g4xx_hal_pwr_ex.c **** 
 516              		.loc 1 305 21 is_stmt 0 view .LVU120
 517 007c 0020     		movs	r0, #0
 518              	.LVL32:
 519              		.loc 1 331 8 view .LVU121
 520 007e 7047     		bx	lr
 521              	.LVL33:
 522              	.L41:
 332:Drivers/STM32G4xx_HAL_Driver/Src/stm32g4xx_hal_pwr_ex.c ****     case PWR_GPIO_F:
 333:Drivers/STM32G4xx_HAL_Driver/Src/stm32g4xx_hal_pwr_ex.c ****        SET_BIT(PWR->PUCRF, (GPIONumber & PWR_PORTF_AVAILABLE_PINS));
 523              		.loc 1 333 8 is_stmt 1 view .LVU122
 524 0080 0C4B     		ldr	r3, .L48
 525 0082 9A6C     		ldr	r2, [r3, #72]
 526 0084 21F4FC71 		bic	r1, r1, #504
 527              	.LVL34:
 528              		.loc 1 333 8 is_stmt 0 view .LVU123
 529 0088 4905     		lsls	r1, r1, #21
 530 008a 490D     		lsrs	r1, r1, #21
 531 008c 0A43     		orrs	r2, r2, r1
 532 008e 9A64     		str	r2, [r3, #72]
 334:Drivers/STM32G4xx_HAL_Driver/Src/stm32g4xx_hal_pwr_ex.c ****        CLEAR_BIT(PWR->PDCRF, (GPIONumber & PWR_PORTF_AVAILABLE_PINS));
 533              		.loc 1 334 8 is_stmt 1 view .LVU124
 534 0090 DA6C     		ldr	r2, [r3, #76]
 535 0092 22EA0102 		bic	r2, r2, r1
 536 0096 DA64     		str	r2, [r3, #76]
 335:Drivers/STM32G4xx_HAL_Driver/Src/stm32g4xx_hal_pwr_ex.c ****        break;
 537              		.loc 1 335 8 view .LVU125
 305:Drivers/STM32G4xx_HAL_Driver/Src/stm32g4xx_hal_pwr_ex.c **** 
ARM GAS  /tmp/cc2lDYQJ.s 			page 17


 538              		.loc 1 305 21 is_stmt 0 view .LVU126
 539 0098 0020     		movs	r0, #0
 540              	.LVL35:
 541              		.loc 1 335 8 view .LVU127
 542 009a 7047     		bx	lr
 543              	.LVL36:
 544              	.L39:
 336:Drivers/STM32G4xx_HAL_Driver/Src/stm32g4xx_hal_pwr_ex.c ****     case PWR_GPIO_G:
 337:Drivers/STM32G4xx_HAL_Driver/Src/stm32g4xx_hal_pwr_ex.c ****        SET_BIT(PWR->PUCRG, (GPIONumber & PWR_PORTG_AVAILABLE_PINS));
 545              		.loc 1 337 8 is_stmt 1 view .LVU128
 546 009c 054B     		ldr	r3, .L48
 547 009e 1A6D     		ldr	r2, [r3, #80]
 548 00a0 01F48061 		and	r1, r1, #1024
 549              	.LVL37:
 550              		.loc 1 337 8 is_stmt 0 view .LVU129
 551 00a4 0A43     		orrs	r2, r2, r1
 552 00a6 1A65     		str	r2, [r3, #80]
 338:Drivers/STM32G4xx_HAL_Driver/Src/stm32g4xx_hal_pwr_ex.c ****        CLEAR_BIT(PWR->PDCRG, ((GPIONumber & PWR_PORTG_AVAILABLE_PINS) & (~(PWR_GPIO_BIT_10))));
 553              		.loc 1 338 8 is_stmt 1 view .LVU130
 554 00a8 5A6D     		ldr	r2, [r3, #84]
 555 00aa 5A65     		str	r2, [r3, #84]
 339:Drivers/STM32G4xx_HAL_Driver/Src/stm32g4xx_hal_pwr_ex.c ****        break;
 556              		.loc 1 339 8 view .LVU131
 305:Drivers/STM32G4xx_HAL_Driver/Src/stm32g4xx_hal_pwr_ex.c **** 
 557              		.loc 1 305 21 is_stmt 0 view .LVU132
 558 00ac 0020     		movs	r0, #0
 559              	.LVL38:
 560              		.loc 1 339 8 view .LVU133
 561 00ae 7047     		bx	lr
 562              	.LVL39:
 563              	.L47:
 310:Drivers/STM32G4xx_HAL_Driver/Src/stm32g4xx_hal_pwr_ex.c ****   {
 564              		.loc 1 310 3 view .LVU134
 565 00b0 0120     		movs	r0, #1
 566              	.LVL40:
 340:Drivers/STM32G4xx_HAL_Driver/Src/stm32g4xx_hal_pwr_ex.c ****     default:
 341:Drivers/STM32G4xx_HAL_Driver/Src/stm32g4xx_hal_pwr_ex.c ****       status = HAL_ERROR;
 342:Drivers/STM32G4xx_HAL_Driver/Src/stm32g4xx_hal_pwr_ex.c ****       break;
 343:Drivers/STM32G4xx_HAL_Driver/Src/stm32g4xx_hal_pwr_ex.c ****   }
 344:Drivers/STM32G4xx_HAL_Driver/Src/stm32g4xx_hal_pwr_ex.c **** 
 345:Drivers/STM32G4xx_HAL_Driver/Src/stm32g4xx_hal_pwr_ex.c ****   return status;
 567              		.loc 1 345 3 is_stmt 1 view .LVU135
 346:Drivers/STM32G4xx_HAL_Driver/Src/stm32g4xx_hal_pwr_ex.c **** }
 568              		.loc 1 346 1 is_stmt 0 view .LVU136
 569 00b2 7047     		bx	lr
 570              	.L49:
 571              		.align	2
 572              	.L48:
 573 00b4 00700040 		.word	1073770496
 574              		.cfi_endproc
 575              	.LFE335:
 577              		.section	.text.HAL_PWREx_DisableGPIOPullUp,"ax",%progbits
 578              		.align	1
 579              		.global	HAL_PWREx_DisableGPIOPullUp
 580              		.syntax unified
 581              		.thumb
 582              		.thumb_func
ARM GAS  /tmp/cc2lDYQJ.s 			page 18


 584              	HAL_PWREx_DisableGPIOPullUp:
 585              	.LVL41:
 586              	.LFB336:
 347:Drivers/STM32G4xx_HAL_Driver/Src/stm32g4xx_hal_pwr_ex.c **** 
 348:Drivers/STM32G4xx_HAL_Driver/Src/stm32g4xx_hal_pwr_ex.c **** 
 349:Drivers/STM32G4xx_HAL_Driver/Src/stm32g4xx_hal_pwr_ex.c **** /**
 350:Drivers/STM32G4xx_HAL_Driver/Src/stm32g4xx_hal_pwr_ex.c ****   * @brief Disable GPIO pull-up state in Standby mode and Shutdown modes.
 351:Drivers/STM32G4xx_HAL_Driver/Src/stm32g4xx_hal_pwr_ex.c ****   * @note  Reset the relevant PUy bits of PWR_PUCRx register used to configure the I/O
 352:Drivers/STM32G4xx_HAL_Driver/Src/stm32g4xx_hal_pwr_ex.c ****   *        in pull-up state in Standby and Shutdown modes.
 353:Drivers/STM32G4xx_HAL_Driver/Src/stm32g4xx_hal_pwr_ex.c ****   * @note  Even if a PUy bit to reset is reserved, the other PUy bits entered as input
 354:Drivers/STM32G4xx_HAL_Driver/Src/stm32g4xx_hal_pwr_ex.c ****   *        parameter at the same time are reset.
 355:Drivers/STM32G4xx_HAL_Driver/Src/stm32g4xx_hal_pwr_ex.c ****   * @param  GPIO: Specifies the IO port. This parameter can be PWR_GPIO_A, ..., PWR_GPIO_G
 356:Drivers/STM32G4xx_HAL_Driver/Src/stm32g4xx_hal_pwr_ex.c ****   *          (or PWR_GPIO_I depending on the devices) to select the GPIO peripheral.
 357:Drivers/STM32G4xx_HAL_Driver/Src/stm32g4xx_hal_pwr_ex.c ****   * @param  GPIONumber: Specify the I/O pins numbers.
 358:Drivers/STM32G4xx_HAL_Driver/Src/stm32g4xx_hal_pwr_ex.c ****   *         This parameter can be one of the following values:
 359:Drivers/STM32G4xx_HAL_Driver/Src/stm32g4xx_hal_pwr_ex.c ****   *         PWR_GPIO_BIT_0, ..., PWR_GPIO_BIT_15 (except for the port where less
 360:Drivers/STM32G4xx_HAL_Driver/Src/stm32g4xx_hal_pwr_ex.c ****   *         I/O pins are available) or the logical OR of several of them to reset
 361:Drivers/STM32G4xx_HAL_Driver/Src/stm32g4xx_hal_pwr_ex.c ****   *         several bits for a given port in a single API call.
 362:Drivers/STM32G4xx_HAL_Driver/Src/stm32g4xx_hal_pwr_ex.c ****   * @retval HAL Status
 363:Drivers/STM32G4xx_HAL_Driver/Src/stm32g4xx_hal_pwr_ex.c ****   */
 364:Drivers/STM32G4xx_HAL_Driver/Src/stm32g4xx_hal_pwr_ex.c **** HAL_StatusTypeDef HAL_PWREx_DisableGPIOPullUp(uint32_t GPIO, uint32_t GPIONumber)
 365:Drivers/STM32G4xx_HAL_Driver/Src/stm32g4xx_hal_pwr_ex.c **** {
 587              		.loc 1 365 1 is_stmt 1 view -0
 588              		.cfi_startproc
 589              		@ args = 0, pretend = 0, frame = 0
 590              		@ frame_needed = 0, uses_anonymous_args = 0
 591              		@ link register save eliminated.
 366:Drivers/STM32G4xx_HAL_Driver/Src/stm32g4xx_hal_pwr_ex.c ****   HAL_StatusTypeDef status = HAL_OK;
 592              		.loc 1 366 3 view .LVU138
 367:Drivers/STM32G4xx_HAL_Driver/Src/stm32g4xx_hal_pwr_ex.c **** 
 368:Drivers/STM32G4xx_HAL_Driver/Src/stm32g4xx_hal_pwr_ex.c ****   assert_param(IS_PWR_GPIO(GPIO));
 593              		.loc 1 368 3 view .LVU139
 369:Drivers/STM32G4xx_HAL_Driver/Src/stm32g4xx_hal_pwr_ex.c ****   assert_param(IS_PWR_GPIO_BIT_NUMBER(GPIONumber));
 594              		.loc 1 369 3 view .LVU140
 370:Drivers/STM32G4xx_HAL_Driver/Src/stm32g4xx_hal_pwr_ex.c **** 
 371:Drivers/STM32G4xx_HAL_Driver/Src/stm32g4xx_hal_pwr_ex.c ****   switch (GPIO)
 595              		.loc 1 371 3 view .LVU141
 596 0000 0628     		cmp	r0, #6
 597 0002 3ED8     		bhi	.L60
 598 0004 DFE800F0 		tbb	[pc, r0]
 599              	.L53:
 600 0008 04       		.byte	(.L59-.L53)/2
 601 0009 0D       		.byte	(.L58-.L53)/2
 602 000a 14       		.byte	(.L57-.L53)/2
 603 000b 1B       		.byte	(.L56-.L53)/2
 604 000c 22       		.byte	(.L55-.L53)/2
 605 000d 29       		.byte	(.L54-.L53)/2
 606 000e 34       		.byte	(.L52-.L53)/2
 607 000f 00       		.p2align 1
 608              	.L59:
 372:Drivers/STM32G4xx_HAL_Driver/Src/stm32g4xx_hal_pwr_ex.c ****   {
 373:Drivers/STM32G4xx_HAL_Driver/Src/stm32g4xx_hal_pwr_ex.c ****     case PWR_GPIO_A:
 374:Drivers/STM32G4xx_HAL_Driver/Src/stm32g4xx_hal_pwr_ex.c ****        CLEAR_BIT(PWR->PUCRA, (GPIONumber & (~(PWR_GPIO_BIT_14))));
 609              		.loc 1 374 8 view .LVU142
 610 0010 1D4A     		ldr	r2, .L61
 611 0012 136A     		ldr	r3, [r2, #32]
 612 0014 21F48041 		bic	r1, r1, #16384
ARM GAS  /tmp/cc2lDYQJ.s 			page 19


 613              	.LVL42:
 614              		.loc 1 374 8 is_stmt 0 view .LVU143
 615 0018 23EA0101 		bic	r1, r3, r1
 616 001c 1162     		str	r1, [r2, #32]
 375:Drivers/STM32G4xx_HAL_Driver/Src/stm32g4xx_hal_pwr_ex.c ****        break;
 617              		.loc 1 375 8 is_stmt 1 view .LVU144
 366:Drivers/STM32G4xx_HAL_Driver/Src/stm32g4xx_hal_pwr_ex.c **** 
 618              		.loc 1 366 21 is_stmt 0 view .LVU145
 619 001e 0020     		movs	r0, #0
 620              	.LVL43:
 621              		.loc 1 375 8 view .LVU146
 622 0020 7047     		bx	lr
 623              	.LVL44:
 624              	.L58:
 376:Drivers/STM32G4xx_HAL_Driver/Src/stm32g4xx_hal_pwr_ex.c ****     case PWR_GPIO_B:
 377:Drivers/STM32G4xx_HAL_Driver/Src/stm32g4xx_hal_pwr_ex.c ****        CLEAR_BIT(PWR->PUCRB, GPIONumber);
 625              		.loc 1 377 8 is_stmt 1 view .LVU147
 626 0022 194A     		ldr	r2, .L61
 627 0024 936A     		ldr	r3, [r2, #40]
 628 0026 23EA0103 		bic	r3, r3, r1
 629 002a 9362     		str	r3, [r2, #40]
 378:Drivers/STM32G4xx_HAL_Driver/Src/stm32g4xx_hal_pwr_ex.c ****        break;
 630              		.loc 1 378 8 view .LVU148
 366:Drivers/STM32G4xx_HAL_Driver/Src/stm32g4xx_hal_pwr_ex.c **** 
 631              		.loc 1 366 21 is_stmt 0 view .LVU149
 632 002c 0020     		movs	r0, #0
 633              	.LVL45:
 634              		.loc 1 378 8 view .LVU150
 635 002e 7047     		bx	lr
 636              	.LVL46:
 637              	.L57:
 379:Drivers/STM32G4xx_HAL_Driver/Src/stm32g4xx_hal_pwr_ex.c ****     case PWR_GPIO_C:
 380:Drivers/STM32G4xx_HAL_Driver/Src/stm32g4xx_hal_pwr_ex.c ****        CLEAR_BIT(PWR->PUCRC, GPIONumber);
 638              		.loc 1 380 8 is_stmt 1 view .LVU151
 639 0030 154A     		ldr	r2, .L61
 640 0032 136B     		ldr	r3, [r2, #48]
 641 0034 23EA0103 		bic	r3, r3, r1
 642 0038 1363     		str	r3, [r2, #48]
 381:Drivers/STM32G4xx_HAL_Driver/Src/stm32g4xx_hal_pwr_ex.c ****        break;
 643              		.loc 1 381 8 view .LVU152
 366:Drivers/STM32G4xx_HAL_Driver/Src/stm32g4xx_hal_pwr_ex.c **** 
 644              		.loc 1 366 21 is_stmt 0 view .LVU153
 645 003a 0020     		movs	r0, #0
 646              	.LVL47:
 647              		.loc 1 381 8 view .LVU154
 648 003c 7047     		bx	lr
 649              	.LVL48:
 650              	.L56:
 382:Drivers/STM32G4xx_HAL_Driver/Src/stm32g4xx_hal_pwr_ex.c ****     case PWR_GPIO_D:
 383:Drivers/STM32G4xx_HAL_Driver/Src/stm32g4xx_hal_pwr_ex.c ****        CLEAR_BIT(PWR->PUCRD, GPIONumber);
 651              		.loc 1 383 8 is_stmt 1 view .LVU155
 652 003e 124A     		ldr	r2, .L61
 653 0040 936B     		ldr	r3, [r2, #56]
 654 0042 23EA0103 		bic	r3, r3, r1
 655 0046 9363     		str	r3, [r2, #56]
 384:Drivers/STM32G4xx_HAL_Driver/Src/stm32g4xx_hal_pwr_ex.c ****        break;
 656              		.loc 1 384 8 view .LVU156
ARM GAS  /tmp/cc2lDYQJ.s 			page 20


 366:Drivers/STM32G4xx_HAL_Driver/Src/stm32g4xx_hal_pwr_ex.c **** 
 657              		.loc 1 366 21 is_stmt 0 view .LVU157
 658 0048 0020     		movs	r0, #0
 659              	.LVL49:
 660              		.loc 1 384 8 view .LVU158
 661 004a 7047     		bx	lr
 662              	.LVL50:
 663              	.L55:
 385:Drivers/STM32G4xx_HAL_Driver/Src/stm32g4xx_hal_pwr_ex.c ****     case PWR_GPIO_E:
 386:Drivers/STM32G4xx_HAL_Driver/Src/stm32g4xx_hal_pwr_ex.c ****        CLEAR_BIT(PWR->PUCRE, GPIONumber);
 664              		.loc 1 386 8 is_stmt 1 view .LVU159
 665 004c 0E4A     		ldr	r2, .L61
 666 004e 136C     		ldr	r3, [r2, #64]
 667 0050 23EA0103 		bic	r3, r3, r1
 668 0054 1364     		str	r3, [r2, #64]
 387:Drivers/STM32G4xx_HAL_Driver/Src/stm32g4xx_hal_pwr_ex.c ****        break;
 669              		.loc 1 387 8 view .LVU160
 366:Drivers/STM32G4xx_HAL_Driver/Src/stm32g4xx_hal_pwr_ex.c **** 
 670              		.loc 1 366 21 is_stmt 0 view .LVU161
 671 0056 0020     		movs	r0, #0
 672              	.LVL51:
 673              		.loc 1 387 8 view .LVU162
 674 0058 7047     		bx	lr
 675              	.LVL52:
 676              	.L54:
 388:Drivers/STM32G4xx_HAL_Driver/Src/stm32g4xx_hal_pwr_ex.c ****     case PWR_GPIO_F:
 389:Drivers/STM32G4xx_HAL_Driver/Src/stm32g4xx_hal_pwr_ex.c ****        CLEAR_BIT(PWR->PUCRF, (GPIONumber & PWR_PORTF_AVAILABLE_PINS));
 677              		.loc 1 389 8 is_stmt 1 view .LVU163
 678 005a 0B4A     		ldr	r2, .L61
 679 005c 936C     		ldr	r3, [r2, #72]
 680 005e 21F4FC71 		bic	r1, r1, #504
 681              	.LVL53:
 682              		.loc 1 389 8 is_stmt 0 view .LVU164
 683 0062 4905     		lsls	r1, r1, #21
 684 0064 490D     		lsrs	r1, r1, #21
 685 0066 23EA0101 		bic	r1, r3, r1
 686 006a 9164     		str	r1, [r2, #72]
 390:Drivers/STM32G4xx_HAL_Driver/Src/stm32g4xx_hal_pwr_ex.c ****        break;
 687              		.loc 1 390 8 is_stmt 1 view .LVU165
 366:Drivers/STM32G4xx_HAL_Driver/Src/stm32g4xx_hal_pwr_ex.c **** 
 688              		.loc 1 366 21 is_stmt 0 view .LVU166
 689 006c 0020     		movs	r0, #0
 690              	.LVL54:
 691              		.loc 1 390 8 view .LVU167
 692 006e 7047     		bx	lr
 693              	.LVL55:
 694              	.L52:
 391:Drivers/STM32G4xx_HAL_Driver/Src/stm32g4xx_hal_pwr_ex.c ****     case PWR_GPIO_G:
 392:Drivers/STM32G4xx_HAL_Driver/Src/stm32g4xx_hal_pwr_ex.c ****        CLEAR_BIT(PWR->PUCRG, (GPIONumber & PWR_PORTG_AVAILABLE_PINS));
 695              		.loc 1 392 8 is_stmt 1 view .LVU168
 696 0070 054A     		ldr	r2, .L61
 697 0072 136D     		ldr	r3, [r2, #80]
 698 0074 01F48061 		and	r1, r1, #1024
 699              	.LVL56:
 700              		.loc 1 392 8 is_stmt 0 view .LVU169
 701 0078 23EA0103 		bic	r3, r3, r1
 702 007c 1365     		str	r3, [r2, #80]
ARM GAS  /tmp/cc2lDYQJ.s 			page 21


 393:Drivers/STM32G4xx_HAL_Driver/Src/stm32g4xx_hal_pwr_ex.c ****        break;
 703              		.loc 1 393 8 is_stmt 1 view .LVU170
 366:Drivers/STM32G4xx_HAL_Driver/Src/stm32g4xx_hal_pwr_ex.c **** 
 704              		.loc 1 366 21 is_stmt 0 view .LVU171
 705 007e 0020     		movs	r0, #0
 706              	.LVL57:
 707              		.loc 1 393 8 view .LVU172
 708 0080 7047     		bx	lr
 709              	.LVL58:
 710              	.L60:
 371:Drivers/STM32G4xx_HAL_Driver/Src/stm32g4xx_hal_pwr_ex.c ****   {
 711              		.loc 1 371 3 view .LVU173
 712 0082 0120     		movs	r0, #1
 713              	.LVL59:
 394:Drivers/STM32G4xx_HAL_Driver/Src/stm32g4xx_hal_pwr_ex.c ****     default:
 395:Drivers/STM32G4xx_HAL_Driver/Src/stm32g4xx_hal_pwr_ex.c ****        status = HAL_ERROR;
 396:Drivers/STM32G4xx_HAL_Driver/Src/stm32g4xx_hal_pwr_ex.c ****        break;
 397:Drivers/STM32G4xx_HAL_Driver/Src/stm32g4xx_hal_pwr_ex.c ****   }
 398:Drivers/STM32G4xx_HAL_Driver/Src/stm32g4xx_hal_pwr_ex.c **** 
 399:Drivers/STM32G4xx_HAL_Driver/Src/stm32g4xx_hal_pwr_ex.c ****   return status;
 714              		.loc 1 399 3 is_stmt 1 view .LVU174
 400:Drivers/STM32G4xx_HAL_Driver/Src/stm32g4xx_hal_pwr_ex.c **** }
 715              		.loc 1 400 1 is_stmt 0 view .LVU175
 716 0084 7047     		bx	lr
 717              	.L62:
 718 0086 00BF     		.align	2
 719              	.L61:
 720 0088 00700040 		.word	1073770496
 721              		.cfi_endproc
 722              	.LFE336:
 724              		.section	.text.HAL_PWREx_EnableGPIOPullDown,"ax",%progbits
 725              		.align	1
 726              		.global	HAL_PWREx_EnableGPIOPullDown
 727              		.syntax unified
 728              		.thumb
 729              		.thumb_func
 731              	HAL_PWREx_EnableGPIOPullDown:
 732              	.LVL60:
 733              	.LFB337:
 401:Drivers/STM32G4xx_HAL_Driver/Src/stm32g4xx_hal_pwr_ex.c **** 
 402:Drivers/STM32G4xx_HAL_Driver/Src/stm32g4xx_hal_pwr_ex.c **** 
 403:Drivers/STM32G4xx_HAL_Driver/Src/stm32g4xx_hal_pwr_ex.c **** 
 404:Drivers/STM32G4xx_HAL_Driver/Src/stm32g4xx_hal_pwr_ex.c **** /**
 405:Drivers/STM32G4xx_HAL_Driver/Src/stm32g4xx_hal_pwr_ex.c ****   * @brief Enable GPIO pull-down state in Standby and Shutdown modes.
 406:Drivers/STM32G4xx_HAL_Driver/Src/stm32g4xx_hal_pwr_ex.c ****   * @note  Set the relevant PDy bits of PWR_PDCRx register to configure the I/O in
 407:Drivers/STM32G4xx_HAL_Driver/Src/stm32g4xx_hal_pwr_ex.c ****   *        pull-down state in Standby and Shutdown modes.
 408:Drivers/STM32G4xx_HAL_Driver/Src/stm32g4xx_hal_pwr_ex.c ****   * @note  This state is effective in Standby and Shutdown modes only if APC bit
 409:Drivers/STM32G4xx_HAL_Driver/Src/stm32g4xx_hal_pwr_ex.c ****   *        is set through HAL_PWREx_EnablePullUpPullDownConfig() API.
 410:Drivers/STM32G4xx_HAL_Driver/Src/stm32g4xx_hal_pwr_ex.c ****   * @note  The configuration is lost when exiting the Shutdown mode due to the
 411:Drivers/STM32G4xx_HAL_Driver/Src/stm32g4xx_hal_pwr_ex.c ****   *        power-on reset, maintained when exiting the Standby mode.
 412:Drivers/STM32G4xx_HAL_Driver/Src/stm32g4xx_hal_pwr_ex.c ****   * @note  To avoid any conflict at Standby and Shutdown modes exits, the corresponding
 413:Drivers/STM32G4xx_HAL_Driver/Src/stm32g4xx_hal_pwr_ex.c ****   *        PUy bit of PWR_PUCRx register is cleared unless it is reserved.
 414:Drivers/STM32G4xx_HAL_Driver/Src/stm32g4xx_hal_pwr_ex.c ****   * @note  Even if a PDy bit to set is reserved, the other PDy bits entered as input
 415:Drivers/STM32G4xx_HAL_Driver/Src/stm32g4xx_hal_pwr_ex.c ****   *        parameter at the same time are set.
 416:Drivers/STM32G4xx_HAL_Driver/Src/stm32g4xx_hal_pwr_ex.c ****   * @param  GPIO: Specify the IO port. This parameter can be PWR_GPIO_A..PWR_GPIO_G
 417:Drivers/STM32G4xx_HAL_Driver/Src/stm32g4xx_hal_pwr_ex.c ****   *         (or PWR_GPIO_I depending on the devices) to select the GPIO peripheral.
 418:Drivers/STM32G4xx_HAL_Driver/Src/stm32g4xx_hal_pwr_ex.c ****   * @param  GPIONumber: Specify the I/O pins numbers.
ARM GAS  /tmp/cc2lDYQJ.s 			page 22


 419:Drivers/STM32G4xx_HAL_Driver/Src/stm32g4xx_hal_pwr_ex.c ****   *         This parameter can be one of the following values:
 420:Drivers/STM32G4xx_HAL_Driver/Src/stm32g4xx_hal_pwr_ex.c ****   *         PWR_GPIO_BIT_0, ..., PWR_GPIO_BIT_15 (except for the port where less
 421:Drivers/STM32G4xx_HAL_Driver/Src/stm32g4xx_hal_pwr_ex.c ****   *         I/O pins are available) or the logical OR of several of them to set
 422:Drivers/STM32G4xx_HAL_Driver/Src/stm32g4xx_hal_pwr_ex.c ****   *         several bits for a given port in a single API call.
 423:Drivers/STM32G4xx_HAL_Driver/Src/stm32g4xx_hal_pwr_ex.c ****   * @retval HAL Status
 424:Drivers/STM32G4xx_HAL_Driver/Src/stm32g4xx_hal_pwr_ex.c ****   */
 425:Drivers/STM32G4xx_HAL_Driver/Src/stm32g4xx_hal_pwr_ex.c **** HAL_StatusTypeDef HAL_PWREx_EnableGPIOPullDown(uint32_t GPIO, uint32_t GPIONumber)
 426:Drivers/STM32G4xx_HAL_Driver/Src/stm32g4xx_hal_pwr_ex.c **** {
 734              		.loc 1 426 1 is_stmt 1 view -0
 735              		.cfi_startproc
 736              		@ args = 0, pretend = 0, frame = 0
 737              		@ frame_needed = 0, uses_anonymous_args = 0
 738              		@ link register save eliminated.
 427:Drivers/STM32G4xx_HAL_Driver/Src/stm32g4xx_hal_pwr_ex.c ****   HAL_StatusTypeDef status = HAL_OK;
 739              		.loc 1 427 3 view .LVU177
 428:Drivers/STM32G4xx_HAL_Driver/Src/stm32g4xx_hal_pwr_ex.c **** 
 429:Drivers/STM32G4xx_HAL_Driver/Src/stm32g4xx_hal_pwr_ex.c ****   assert_param(IS_PWR_GPIO(GPIO));
 740              		.loc 1 429 3 view .LVU178
 430:Drivers/STM32G4xx_HAL_Driver/Src/stm32g4xx_hal_pwr_ex.c ****   assert_param(IS_PWR_GPIO_BIT_NUMBER(GPIONumber));
 741              		.loc 1 430 3 view .LVU179
 431:Drivers/STM32G4xx_HAL_Driver/Src/stm32g4xx_hal_pwr_ex.c **** 
 432:Drivers/STM32G4xx_HAL_Driver/Src/stm32g4xx_hal_pwr_ex.c ****   switch (GPIO)
 742              		.loc 1 432 3 view .LVU180
 743 0000 0628     		cmp	r0, #6
 744 0002 56D8     		bhi	.L73
 745 0004 DFE800F0 		tbb	[pc, r0]
 746              	.L66:
 747 0008 04       		.byte	(.L72-.L66)/2
 748 0009 12       		.byte	(.L71-.L66)/2
 749 000a 1E       		.byte	(.L70-.L66)/2
 750 000b 28       		.byte	(.L69-.L66)/2
 751 000c 32       		.byte	(.L68-.L66)/2
 752 000d 3C       		.byte	(.L67-.L66)/2
 753 000e 4A       		.byte	(.L65-.L66)/2
 754 000f 00       		.p2align 1
 755              	.L72:
 433:Drivers/STM32G4xx_HAL_Driver/Src/stm32g4xx_hal_pwr_ex.c ****   {
 434:Drivers/STM32G4xx_HAL_Driver/Src/stm32g4xx_hal_pwr_ex.c ****     case PWR_GPIO_A:
 435:Drivers/STM32G4xx_HAL_Driver/Src/stm32g4xx_hal_pwr_ex.c ****        SET_BIT(PWR->PDCRA, (GPIONumber & (~(PWR_GPIO_BIT_13|PWR_GPIO_BIT_15))));
 756              		.loc 1 435 8 view .LVU181
 757 0010 294B     		ldr	r3, .L74
 758 0012 5A6A     		ldr	r2, [r3, #36]
 759 0014 21F42040 		bic	r0, r1, #40960
 760              	.LVL61:
 761              		.loc 1 435 8 is_stmt 0 view .LVU182
 762 0018 0243     		orrs	r2, r2, r0
 763 001a 5A62     		str	r2, [r3, #36]
 436:Drivers/STM32G4xx_HAL_Driver/Src/stm32g4xx_hal_pwr_ex.c ****        CLEAR_BIT(PWR->PUCRA, (GPIONumber & (~(PWR_GPIO_BIT_14))));
 764              		.loc 1 436 8 is_stmt 1 view .LVU183
 765 001c 1A6A     		ldr	r2, [r3, #32]
 766 001e 21F48041 		bic	r1, r1, #16384
 767              	.LVL62:
 768              		.loc 1 436 8 is_stmt 0 view .LVU184
 769 0022 22EA0102 		bic	r2, r2, r1
 770 0026 1A62     		str	r2, [r3, #32]
 437:Drivers/STM32G4xx_HAL_Driver/Src/stm32g4xx_hal_pwr_ex.c ****        break;
 771              		.loc 1 437 8 is_stmt 1 view .LVU185
ARM GAS  /tmp/cc2lDYQJ.s 			page 23


 427:Drivers/STM32G4xx_HAL_Driver/Src/stm32g4xx_hal_pwr_ex.c **** 
 772              		.loc 1 427 21 is_stmt 0 view .LVU186
 773 0028 0020     		movs	r0, #0
 774              		.loc 1 437 8 view .LVU187
 775 002a 7047     		bx	lr
 776              	.LVL63:
 777              	.L71:
 438:Drivers/STM32G4xx_HAL_Driver/Src/stm32g4xx_hal_pwr_ex.c ****     case PWR_GPIO_B:
 439:Drivers/STM32G4xx_HAL_Driver/Src/stm32g4xx_hal_pwr_ex.c ****        SET_BIT(PWR->PDCRB, (GPIONumber & (~(PWR_GPIO_BIT_4))));
 778              		.loc 1 439 8 is_stmt 1 view .LVU188
 779 002c 224B     		ldr	r3, .L74
 780 002e DA6A     		ldr	r2, [r3, #44]
 781 0030 21F01000 		bic	r0, r1, #16
 782              	.LVL64:
 783              		.loc 1 439 8 is_stmt 0 view .LVU189
 784 0034 0243     		orrs	r2, r2, r0
 785 0036 DA62     		str	r2, [r3, #44]
 440:Drivers/STM32G4xx_HAL_Driver/Src/stm32g4xx_hal_pwr_ex.c ****        CLEAR_BIT(PWR->PUCRB, GPIONumber);
 786              		.loc 1 440 8 is_stmt 1 view .LVU190
 787 0038 9A6A     		ldr	r2, [r3, #40]
 788 003a 22EA0102 		bic	r2, r2, r1
 789 003e 9A62     		str	r2, [r3, #40]
 441:Drivers/STM32G4xx_HAL_Driver/Src/stm32g4xx_hal_pwr_ex.c ****        break;
 790              		.loc 1 441 8 view .LVU191
 427:Drivers/STM32G4xx_HAL_Driver/Src/stm32g4xx_hal_pwr_ex.c **** 
 791              		.loc 1 427 21 is_stmt 0 view .LVU192
 792 0040 0020     		movs	r0, #0
 793              		.loc 1 441 8 view .LVU193
 794 0042 7047     		bx	lr
 795              	.LVL65:
 796              	.L70:
 442:Drivers/STM32G4xx_HAL_Driver/Src/stm32g4xx_hal_pwr_ex.c ****     case PWR_GPIO_C:
 443:Drivers/STM32G4xx_HAL_Driver/Src/stm32g4xx_hal_pwr_ex.c ****        SET_BIT(PWR->PDCRC, GPIONumber);
 797              		.loc 1 443 8 is_stmt 1 view .LVU194
 798 0044 1C4B     		ldr	r3, .L74
 799 0046 5A6B     		ldr	r2, [r3, #52]
 800 0048 0A43     		orrs	r2, r2, r1
 801 004a 5A63     		str	r2, [r3, #52]
 444:Drivers/STM32G4xx_HAL_Driver/Src/stm32g4xx_hal_pwr_ex.c ****        CLEAR_BIT(PWR->PUCRC, GPIONumber);
 802              		.loc 1 444 8 view .LVU195
 803 004c 1A6B     		ldr	r2, [r3, #48]
 804 004e 22EA0102 		bic	r2, r2, r1
 805 0052 1A63     		str	r2, [r3, #48]
 445:Drivers/STM32G4xx_HAL_Driver/Src/stm32g4xx_hal_pwr_ex.c ****        break;
 806              		.loc 1 445 8 view .LVU196
 427:Drivers/STM32G4xx_HAL_Driver/Src/stm32g4xx_hal_pwr_ex.c **** 
 807              		.loc 1 427 21 is_stmt 0 view .LVU197
 808 0054 0020     		movs	r0, #0
 809              	.LVL66:
 810              		.loc 1 445 8 view .LVU198
 811 0056 7047     		bx	lr
 812              	.LVL67:
 813              	.L69:
 446:Drivers/STM32G4xx_HAL_Driver/Src/stm32g4xx_hal_pwr_ex.c ****     case PWR_GPIO_D:
 447:Drivers/STM32G4xx_HAL_Driver/Src/stm32g4xx_hal_pwr_ex.c ****        SET_BIT(PWR->PDCRD, GPIONumber);
 814              		.loc 1 447 8 is_stmt 1 view .LVU199
 815 0058 174B     		ldr	r3, .L74
ARM GAS  /tmp/cc2lDYQJ.s 			page 24


 816 005a DA6B     		ldr	r2, [r3, #60]
 817 005c 0A43     		orrs	r2, r2, r1
 818 005e DA63     		str	r2, [r3, #60]
 448:Drivers/STM32G4xx_HAL_Driver/Src/stm32g4xx_hal_pwr_ex.c ****        CLEAR_BIT(PWR->PUCRD, GPIONumber);
 819              		.loc 1 448 8 view .LVU200
 820 0060 9A6B     		ldr	r2, [r3, #56]
 821 0062 22EA0102 		bic	r2, r2, r1
 822 0066 9A63     		str	r2, [r3, #56]
 449:Drivers/STM32G4xx_HAL_Driver/Src/stm32g4xx_hal_pwr_ex.c ****        break;
 823              		.loc 1 449 8 view .LVU201
 427:Drivers/STM32G4xx_HAL_Driver/Src/stm32g4xx_hal_pwr_ex.c **** 
 824              		.loc 1 427 21 is_stmt 0 view .LVU202
 825 0068 0020     		movs	r0, #0
 826              	.LVL68:
 827              		.loc 1 449 8 view .LVU203
 828 006a 7047     		bx	lr
 829              	.LVL69:
 830              	.L68:
 450:Drivers/STM32G4xx_HAL_Driver/Src/stm32g4xx_hal_pwr_ex.c ****     case PWR_GPIO_E:
 451:Drivers/STM32G4xx_HAL_Driver/Src/stm32g4xx_hal_pwr_ex.c ****        SET_BIT(PWR->PDCRE, GPIONumber);
 831              		.loc 1 451 8 is_stmt 1 view .LVU204
 832 006c 124B     		ldr	r3, .L74
 833 006e 5A6C     		ldr	r2, [r3, #68]
 834 0070 0A43     		orrs	r2, r2, r1
 835 0072 5A64     		str	r2, [r3, #68]
 452:Drivers/STM32G4xx_HAL_Driver/Src/stm32g4xx_hal_pwr_ex.c ****        CLEAR_BIT(PWR->PUCRE, GPIONumber);
 836              		.loc 1 452 8 view .LVU205
 837 0074 1A6C     		ldr	r2, [r3, #64]
 838 0076 22EA0102 		bic	r2, r2, r1
 839 007a 1A64     		str	r2, [r3, #64]
 453:Drivers/STM32G4xx_HAL_Driver/Src/stm32g4xx_hal_pwr_ex.c ****        break;
 840              		.loc 1 453 8 view .LVU206
 427:Drivers/STM32G4xx_HAL_Driver/Src/stm32g4xx_hal_pwr_ex.c **** 
 841              		.loc 1 427 21 is_stmt 0 view .LVU207
 842 007c 0020     		movs	r0, #0
 843              	.LVL70:
 844              		.loc 1 453 8 view .LVU208
 845 007e 7047     		bx	lr
 846              	.LVL71:
 847              	.L67:
 454:Drivers/STM32G4xx_HAL_Driver/Src/stm32g4xx_hal_pwr_ex.c ****     case PWR_GPIO_F:
 455:Drivers/STM32G4xx_HAL_Driver/Src/stm32g4xx_hal_pwr_ex.c ****        SET_BIT(PWR->PDCRF, (GPIONumber & PWR_PORTF_AVAILABLE_PINS));
 848              		.loc 1 455 8 is_stmt 1 view .LVU209
 849 0080 0D4B     		ldr	r3, .L74
 850 0082 DA6C     		ldr	r2, [r3, #76]
 851 0084 21F4FC71 		bic	r1, r1, #504
 852              	.LVL72:
 853              		.loc 1 455 8 is_stmt 0 view .LVU210
 854 0088 4905     		lsls	r1, r1, #21
 855 008a 490D     		lsrs	r1, r1, #21
 856 008c 0A43     		orrs	r2, r2, r1
 857 008e DA64     		str	r2, [r3, #76]
 456:Drivers/STM32G4xx_HAL_Driver/Src/stm32g4xx_hal_pwr_ex.c ****        CLEAR_BIT(PWR->PUCRF, (GPIONumber & PWR_PORTF_AVAILABLE_PINS));
 858              		.loc 1 456 8 is_stmt 1 view .LVU211
 859 0090 9A6C     		ldr	r2, [r3, #72]
 860 0092 22EA0102 		bic	r2, r2, r1
 861 0096 9A64     		str	r2, [r3, #72]
ARM GAS  /tmp/cc2lDYQJ.s 			page 25


 457:Drivers/STM32G4xx_HAL_Driver/Src/stm32g4xx_hal_pwr_ex.c ****        break;
 862              		.loc 1 457 8 view .LVU212
 427:Drivers/STM32G4xx_HAL_Driver/Src/stm32g4xx_hal_pwr_ex.c **** 
 863              		.loc 1 427 21 is_stmt 0 view .LVU213
 864 0098 0020     		movs	r0, #0
 865              	.LVL73:
 866              		.loc 1 457 8 view .LVU214
 867 009a 7047     		bx	lr
 868              	.LVL74:
 869              	.L65:
 458:Drivers/STM32G4xx_HAL_Driver/Src/stm32g4xx_hal_pwr_ex.c ****     case PWR_GPIO_G:
 459:Drivers/STM32G4xx_HAL_Driver/Src/stm32g4xx_hal_pwr_ex.c ****        SET_BIT(PWR->PDCRG, ((GPIONumber & PWR_PORTG_AVAILABLE_PINS) & (~(PWR_GPIO_BIT_10))));
 870              		.loc 1 459 8 is_stmt 1 view .LVU215
 871 009c 064B     		ldr	r3, .L74
 872 009e 5A6D     		ldr	r2, [r3, #84]
 873 00a0 5A65     		str	r2, [r3, #84]
 460:Drivers/STM32G4xx_HAL_Driver/Src/stm32g4xx_hal_pwr_ex.c ****        CLEAR_BIT(PWR->PUCRG, (GPIONumber & PWR_PORTG_AVAILABLE_PINS));
 874              		.loc 1 460 8 view .LVU216
 875 00a2 1A6D     		ldr	r2, [r3, #80]
 876 00a4 01F48061 		and	r1, r1, #1024
 877              	.LVL75:
 878              		.loc 1 460 8 is_stmt 0 view .LVU217
 879 00a8 22EA0102 		bic	r2, r2, r1
 880 00ac 1A65     		str	r2, [r3, #80]
 461:Drivers/STM32G4xx_HAL_Driver/Src/stm32g4xx_hal_pwr_ex.c ****        break;
 881              		.loc 1 461 8 is_stmt 1 view .LVU218
 427:Drivers/STM32G4xx_HAL_Driver/Src/stm32g4xx_hal_pwr_ex.c **** 
 882              		.loc 1 427 21 is_stmt 0 view .LVU219
 883 00ae 0020     		movs	r0, #0
 884              	.LVL76:
 885              		.loc 1 461 8 view .LVU220
 886 00b0 7047     		bx	lr
 887              	.LVL77:
 888              	.L73:
 432:Drivers/STM32G4xx_HAL_Driver/Src/stm32g4xx_hal_pwr_ex.c ****   {
 889              		.loc 1 432 3 view .LVU221
 890 00b2 0120     		movs	r0, #1
 891              	.LVL78:
 462:Drivers/STM32G4xx_HAL_Driver/Src/stm32g4xx_hal_pwr_ex.c ****     default:
 463:Drivers/STM32G4xx_HAL_Driver/Src/stm32g4xx_hal_pwr_ex.c ****       status = HAL_ERROR;
 464:Drivers/STM32G4xx_HAL_Driver/Src/stm32g4xx_hal_pwr_ex.c ****       break;
 465:Drivers/STM32G4xx_HAL_Driver/Src/stm32g4xx_hal_pwr_ex.c ****   }
 466:Drivers/STM32G4xx_HAL_Driver/Src/stm32g4xx_hal_pwr_ex.c **** 
 467:Drivers/STM32G4xx_HAL_Driver/Src/stm32g4xx_hal_pwr_ex.c ****   return status;
 892              		.loc 1 467 3 is_stmt 1 view .LVU222
 468:Drivers/STM32G4xx_HAL_Driver/Src/stm32g4xx_hal_pwr_ex.c **** }
 893              		.loc 1 468 1 is_stmt 0 view .LVU223
 894 00b4 7047     		bx	lr
 895              	.L75:
 896 00b6 00BF     		.align	2
 897              	.L74:
 898 00b8 00700040 		.word	1073770496
 899              		.cfi_endproc
 900              	.LFE337:
 902              		.section	.text.HAL_PWREx_DisableGPIOPullDown,"ax",%progbits
 903              		.align	1
 904              		.global	HAL_PWREx_DisableGPIOPullDown
ARM GAS  /tmp/cc2lDYQJ.s 			page 26


 905              		.syntax unified
 906              		.thumb
 907              		.thumb_func
 909              	HAL_PWREx_DisableGPIOPullDown:
 910              	.LVL79:
 911              	.LFB338:
 469:Drivers/STM32G4xx_HAL_Driver/Src/stm32g4xx_hal_pwr_ex.c **** 
 470:Drivers/STM32G4xx_HAL_Driver/Src/stm32g4xx_hal_pwr_ex.c **** 
 471:Drivers/STM32G4xx_HAL_Driver/Src/stm32g4xx_hal_pwr_ex.c **** /**
 472:Drivers/STM32G4xx_HAL_Driver/Src/stm32g4xx_hal_pwr_ex.c ****   * @brief Disable GPIO pull-down state in Standby and Shutdown modes.
 473:Drivers/STM32G4xx_HAL_Driver/Src/stm32g4xx_hal_pwr_ex.c ****   * @note  Reset the relevant PDy bits of PWR_PDCRx register used to configure the I/O
 474:Drivers/STM32G4xx_HAL_Driver/Src/stm32g4xx_hal_pwr_ex.c ****   *        in pull-down state in Standby and Shutdown modes.
 475:Drivers/STM32G4xx_HAL_Driver/Src/stm32g4xx_hal_pwr_ex.c ****   * @note  Even if a PDy bit to reset is reserved, the other PDy bits entered as input
 476:Drivers/STM32G4xx_HAL_Driver/Src/stm32g4xx_hal_pwr_ex.c ****   *        parameter at the same time are reset.
 477:Drivers/STM32G4xx_HAL_Driver/Src/stm32g4xx_hal_pwr_ex.c ****   * @param  GPIO: Specifies the IO port. This parameter can be PWR_GPIO_A..PWR_GPIO_G
 478:Drivers/STM32G4xx_HAL_Driver/Src/stm32g4xx_hal_pwr_ex.c ****   *         (or PWR_GPIO_I depending on the devices) to select the GPIO peripheral.
 479:Drivers/STM32G4xx_HAL_Driver/Src/stm32g4xx_hal_pwr_ex.c ****   * @param  GPIONumber: Specify the I/O pins numbers.
 480:Drivers/STM32G4xx_HAL_Driver/Src/stm32g4xx_hal_pwr_ex.c ****   *         This parameter can be one of the following values:
 481:Drivers/STM32G4xx_HAL_Driver/Src/stm32g4xx_hal_pwr_ex.c ****   *         PWR_GPIO_BIT_0, ..., PWR_GPIO_BIT_15 (except for the port where less
 482:Drivers/STM32G4xx_HAL_Driver/Src/stm32g4xx_hal_pwr_ex.c ****   *         I/O pins are available) or the logical OR of several of them to reset
 483:Drivers/STM32G4xx_HAL_Driver/Src/stm32g4xx_hal_pwr_ex.c ****   *         several bits for a given port in a single API call.
 484:Drivers/STM32G4xx_HAL_Driver/Src/stm32g4xx_hal_pwr_ex.c ****   * @retval HAL Status
 485:Drivers/STM32G4xx_HAL_Driver/Src/stm32g4xx_hal_pwr_ex.c ****   */
 486:Drivers/STM32G4xx_HAL_Driver/Src/stm32g4xx_hal_pwr_ex.c **** HAL_StatusTypeDef HAL_PWREx_DisableGPIOPullDown(uint32_t GPIO, uint32_t GPIONumber)
 487:Drivers/STM32G4xx_HAL_Driver/Src/stm32g4xx_hal_pwr_ex.c **** {
 912              		.loc 1 487 1 is_stmt 1 view -0
 913              		.cfi_startproc
 914              		@ args = 0, pretend = 0, frame = 0
 915              		@ frame_needed = 0, uses_anonymous_args = 0
 916              		@ link register save eliminated.
 488:Drivers/STM32G4xx_HAL_Driver/Src/stm32g4xx_hal_pwr_ex.c ****   HAL_StatusTypeDef status = HAL_OK;
 917              		.loc 1 488 3 view .LVU225
 489:Drivers/STM32G4xx_HAL_Driver/Src/stm32g4xx_hal_pwr_ex.c **** 
 490:Drivers/STM32G4xx_HAL_Driver/Src/stm32g4xx_hal_pwr_ex.c ****   assert_param(IS_PWR_GPIO(GPIO));
 918              		.loc 1 490 3 view .LVU226
 491:Drivers/STM32G4xx_HAL_Driver/Src/stm32g4xx_hal_pwr_ex.c ****   assert_param(IS_PWR_GPIO_BIT_NUMBER(GPIONumber));
 919              		.loc 1 491 3 view .LVU227
 492:Drivers/STM32G4xx_HAL_Driver/Src/stm32g4xx_hal_pwr_ex.c **** 
 493:Drivers/STM32G4xx_HAL_Driver/Src/stm32g4xx_hal_pwr_ex.c ****   switch (GPIO)
 920              		.loc 1 493 3 view .LVU228
 921 0000 0628     		cmp	r0, #6
 922 0002 3CD8     		bhi	.L86
 923 0004 DFE800F0 		tbb	[pc, r0]
 924              	.L79:
 925 0008 04       		.byte	(.L85-.L79)/2
 926 0009 0D       		.byte	(.L84-.L79)/2
 927 000a 16       		.byte	(.L83-.L79)/2
 928 000b 1D       		.byte	(.L82-.L79)/2
 929 000c 24       		.byte	(.L81-.L79)/2
 930 000d 2B       		.byte	(.L80-.L79)/2
 931 000e 36       		.byte	(.L78-.L79)/2
 932 000f 00       		.p2align 1
 933              	.L85:
 494:Drivers/STM32G4xx_HAL_Driver/Src/stm32g4xx_hal_pwr_ex.c ****   {
 495:Drivers/STM32G4xx_HAL_Driver/Src/stm32g4xx_hal_pwr_ex.c ****     case PWR_GPIO_A:
 496:Drivers/STM32G4xx_HAL_Driver/Src/stm32g4xx_hal_pwr_ex.c ****        CLEAR_BIT(PWR->PDCRA, (GPIONumber & (~(PWR_GPIO_BIT_13|PWR_GPIO_BIT_15))));
 934              		.loc 1 496 8 view .LVU229
ARM GAS  /tmp/cc2lDYQJ.s 			page 27


 935 0010 1C4A     		ldr	r2, .L87
 936 0012 536A     		ldr	r3, [r2, #36]
 937 0014 21F42041 		bic	r1, r1, #40960
 938              	.LVL80:
 939              		.loc 1 496 8 is_stmt 0 view .LVU230
 940 0018 23EA0101 		bic	r1, r3, r1
 941 001c 5162     		str	r1, [r2, #36]
 497:Drivers/STM32G4xx_HAL_Driver/Src/stm32g4xx_hal_pwr_ex.c ****        break;
 942              		.loc 1 497 8 is_stmt 1 view .LVU231
 488:Drivers/STM32G4xx_HAL_Driver/Src/stm32g4xx_hal_pwr_ex.c **** 
 943              		.loc 1 488 21 is_stmt 0 view .LVU232
 944 001e 0020     		movs	r0, #0
 945              	.LVL81:
 946              		.loc 1 497 8 view .LVU233
 947 0020 7047     		bx	lr
 948              	.LVL82:
 949              	.L84:
 498:Drivers/STM32G4xx_HAL_Driver/Src/stm32g4xx_hal_pwr_ex.c ****     case PWR_GPIO_B:
 499:Drivers/STM32G4xx_HAL_Driver/Src/stm32g4xx_hal_pwr_ex.c ****        CLEAR_BIT(PWR->PDCRB, (GPIONumber & (~(PWR_GPIO_BIT_4))));
 950              		.loc 1 499 8 is_stmt 1 view .LVU234
 951 0022 184A     		ldr	r2, .L87
 952 0024 D36A     		ldr	r3, [r2, #44]
 953 0026 21F01001 		bic	r1, r1, #16
 954              	.LVL83:
 955              		.loc 1 499 8 is_stmt 0 view .LVU235
 956 002a 23EA0101 		bic	r1, r3, r1
 957 002e D162     		str	r1, [r2, #44]
 500:Drivers/STM32G4xx_HAL_Driver/Src/stm32g4xx_hal_pwr_ex.c ****        break;
 958              		.loc 1 500 8 is_stmt 1 view .LVU236
 488:Drivers/STM32G4xx_HAL_Driver/Src/stm32g4xx_hal_pwr_ex.c **** 
 959              		.loc 1 488 21 is_stmt 0 view .LVU237
 960 0030 0020     		movs	r0, #0
 961              	.LVL84:
 962              		.loc 1 500 8 view .LVU238
 963 0032 7047     		bx	lr
 964              	.LVL85:
 965              	.L83:
 501:Drivers/STM32G4xx_HAL_Driver/Src/stm32g4xx_hal_pwr_ex.c ****     case PWR_GPIO_C:
 502:Drivers/STM32G4xx_HAL_Driver/Src/stm32g4xx_hal_pwr_ex.c ****        CLEAR_BIT(PWR->PDCRC, GPIONumber);
 966              		.loc 1 502 8 is_stmt 1 view .LVU239
 967 0034 134A     		ldr	r2, .L87
 968 0036 536B     		ldr	r3, [r2, #52]
 969 0038 23EA0103 		bic	r3, r3, r1
 970 003c 5363     		str	r3, [r2, #52]
 503:Drivers/STM32G4xx_HAL_Driver/Src/stm32g4xx_hal_pwr_ex.c ****        break;
 971              		.loc 1 503 8 view .LVU240
 488:Drivers/STM32G4xx_HAL_Driver/Src/stm32g4xx_hal_pwr_ex.c **** 
 972              		.loc 1 488 21 is_stmt 0 view .LVU241
 973 003e 0020     		movs	r0, #0
 974              	.LVL86:
 975              		.loc 1 503 8 view .LVU242
 976 0040 7047     		bx	lr
 977              	.LVL87:
 978              	.L82:
 504:Drivers/STM32G4xx_HAL_Driver/Src/stm32g4xx_hal_pwr_ex.c ****     case PWR_GPIO_D:
 505:Drivers/STM32G4xx_HAL_Driver/Src/stm32g4xx_hal_pwr_ex.c ****        CLEAR_BIT(PWR->PDCRD, GPIONumber);
 979              		.loc 1 505 8 is_stmt 1 view .LVU243
ARM GAS  /tmp/cc2lDYQJ.s 			page 28


 980 0042 104A     		ldr	r2, .L87
 981 0044 D36B     		ldr	r3, [r2, #60]
 982 0046 23EA0103 		bic	r3, r3, r1
 983 004a D363     		str	r3, [r2, #60]
 506:Drivers/STM32G4xx_HAL_Driver/Src/stm32g4xx_hal_pwr_ex.c ****        break;
 984              		.loc 1 506 8 view .LVU244
 488:Drivers/STM32G4xx_HAL_Driver/Src/stm32g4xx_hal_pwr_ex.c **** 
 985              		.loc 1 488 21 is_stmt 0 view .LVU245
 986 004c 0020     		movs	r0, #0
 987              	.LVL88:
 988              		.loc 1 506 8 view .LVU246
 989 004e 7047     		bx	lr
 990              	.LVL89:
 991              	.L81:
 507:Drivers/STM32G4xx_HAL_Driver/Src/stm32g4xx_hal_pwr_ex.c ****     case PWR_GPIO_E:
 508:Drivers/STM32G4xx_HAL_Driver/Src/stm32g4xx_hal_pwr_ex.c ****        CLEAR_BIT(PWR->PDCRE, GPIONumber);
 992              		.loc 1 508 8 is_stmt 1 view .LVU247
 993 0050 0C4A     		ldr	r2, .L87
 994 0052 536C     		ldr	r3, [r2, #68]
 995 0054 23EA0103 		bic	r3, r3, r1
 996 0058 5364     		str	r3, [r2, #68]
 509:Drivers/STM32G4xx_HAL_Driver/Src/stm32g4xx_hal_pwr_ex.c ****        break;
 997              		.loc 1 509 8 view .LVU248
 488:Drivers/STM32G4xx_HAL_Driver/Src/stm32g4xx_hal_pwr_ex.c **** 
 998              		.loc 1 488 21 is_stmt 0 view .LVU249
 999 005a 0020     		movs	r0, #0
 1000              	.LVL90:
 1001              		.loc 1 509 8 view .LVU250
 1002 005c 7047     		bx	lr
 1003              	.LVL91:
 1004              	.L80:
 510:Drivers/STM32G4xx_HAL_Driver/Src/stm32g4xx_hal_pwr_ex.c ****     case PWR_GPIO_F:
 511:Drivers/STM32G4xx_HAL_Driver/Src/stm32g4xx_hal_pwr_ex.c ****        CLEAR_BIT(PWR->PDCRF, (GPIONumber & PWR_PORTF_AVAILABLE_PINS));
 1005              		.loc 1 511 8 is_stmt 1 view .LVU251
 1006 005e 094A     		ldr	r2, .L87
 1007 0060 D36C     		ldr	r3, [r2, #76]
 1008 0062 21F4FC71 		bic	r1, r1, #504
 1009              	.LVL92:
 1010              		.loc 1 511 8 is_stmt 0 view .LVU252
 1011 0066 4905     		lsls	r1, r1, #21
 1012 0068 490D     		lsrs	r1, r1, #21
 1013 006a 23EA0103 		bic	r3, r3, r1
 1014 006e D364     		str	r3, [r2, #76]
 512:Drivers/STM32G4xx_HAL_Driver/Src/stm32g4xx_hal_pwr_ex.c ****        break;
 1015              		.loc 1 512 8 is_stmt 1 view .LVU253
 488:Drivers/STM32G4xx_HAL_Driver/Src/stm32g4xx_hal_pwr_ex.c **** 
 1016              		.loc 1 488 21 is_stmt 0 view .LVU254
 1017 0070 0020     		movs	r0, #0
 1018              	.LVL93:
 1019              		.loc 1 512 8 view .LVU255
 1020 0072 7047     		bx	lr
 1021              	.LVL94:
 1022              	.L78:
 513:Drivers/STM32G4xx_HAL_Driver/Src/stm32g4xx_hal_pwr_ex.c ****     case PWR_GPIO_G:
 514:Drivers/STM32G4xx_HAL_Driver/Src/stm32g4xx_hal_pwr_ex.c ****        CLEAR_BIT(PWR->PDCRG, ((GPIONumber & PWR_PORTG_AVAILABLE_PINS) & (~(PWR_GPIO_BIT_10))));
 1023              		.loc 1 514 8 is_stmt 1 view .LVU256
 1024 0074 034B     		ldr	r3, .L87
ARM GAS  /tmp/cc2lDYQJ.s 			page 29


 1025 0076 5A6D     		ldr	r2, [r3, #84]
 1026 0078 5A65     		str	r2, [r3, #84]
 515:Drivers/STM32G4xx_HAL_Driver/Src/stm32g4xx_hal_pwr_ex.c ****        break;
 1027              		.loc 1 515 8 view .LVU257
 488:Drivers/STM32G4xx_HAL_Driver/Src/stm32g4xx_hal_pwr_ex.c **** 
 1028              		.loc 1 488 21 is_stmt 0 view .LVU258
 1029 007a 0020     		movs	r0, #0
 1030              	.LVL95:
 1031              		.loc 1 515 8 view .LVU259
 1032 007c 7047     		bx	lr
 1033              	.LVL96:
 1034              	.L86:
 493:Drivers/STM32G4xx_HAL_Driver/Src/stm32g4xx_hal_pwr_ex.c ****   {
 1035              		.loc 1 493 3 view .LVU260
 1036 007e 0120     		movs	r0, #1
 1037              	.LVL97:
 516:Drivers/STM32G4xx_HAL_Driver/Src/stm32g4xx_hal_pwr_ex.c ****     default:
 517:Drivers/STM32G4xx_HAL_Driver/Src/stm32g4xx_hal_pwr_ex.c ****       status = HAL_ERROR;
 518:Drivers/STM32G4xx_HAL_Driver/Src/stm32g4xx_hal_pwr_ex.c ****       break;
 519:Drivers/STM32G4xx_HAL_Driver/Src/stm32g4xx_hal_pwr_ex.c ****   }
 520:Drivers/STM32G4xx_HAL_Driver/Src/stm32g4xx_hal_pwr_ex.c **** 
 521:Drivers/STM32G4xx_HAL_Driver/Src/stm32g4xx_hal_pwr_ex.c ****   return status;
 1038              		.loc 1 521 3 is_stmt 1 view .LVU261
 522:Drivers/STM32G4xx_HAL_Driver/Src/stm32g4xx_hal_pwr_ex.c **** }
 1039              		.loc 1 522 1 is_stmt 0 view .LVU262
 1040 0080 7047     		bx	lr
 1041              	.L88:
 1042 0082 00BF     		.align	2
 1043              	.L87:
 1044 0084 00700040 		.word	1073770496
 1045              		.cfi_endproc
 1046              	.LFE338:
 1048              		.section	.text.HAL_PWREx_EnablePullUpPullDownConfig,"ax",%progbits
 1049              		.align	1
 1050              		.global	HAL_PWREx_EnablePullUpPullDownConfig
 1051              		.syntax unified
 1052              		.thumb
 1053              		.thumb_func
 1055              	HAL_PWREx_EnablePullUpPullDownConfig:
 1056              	.LFB339:
 523:Drivers/STM32G4xx_HAL_Driver/Src/stm32g4xx_hal_pwr_ex.c **** 
 524:Drivers/STM32G4xx_HAL_Driver/Src/stm32g4xx_hal_pwr_ex.c **** 
 525:Drivers/STM32G4xx_HAL_Driver/Src/stm32g4xx_hal_pwr_ex.c **** 
 526:Drivers/STM32G4xx_HAL_Driver/Src/stm32g4xx_hal_pwr_ex.c **** /**
 527:Drivers/STM32G4xx_HAL_Driver/Src/stm32g4xx_hal_pwr_ex.c ****   * @brief Enable pull-up and pull-down configuration.
 528:Drivers/STM32G4xx_HAL_Driver/Src/stm32g4xx_hal_pwr_ex.c ****   * @note  When APC bit is set, the I/O pull-up and pull-down configurations defined in
 529:Drivers/STM32G4xx_HAL_Driver/Src/stm32g4xx_hal_pwr_ex.c ****   *        PWR_PUCRx and PWR_PDCRx registers are applied in Standby and Shutdown modes.
 530:Drivers/STM32G4xx_HAL_Driver/Src/stm32g4xx_hal_pwr_ex.c ****   * @note  Pull-up set by PUy bit of PWR_PUCRx register is not activated if the corresponding
 531:Drivers/STM32G4xx_HAL_Driver/Src/stm32g4xx_hal_pwr_ex.c ****   *        PDy bit of PWR_PDCRx register is also set (pull-down configuration priority is higher).
 532:Drivers/STM32G4xx_HAL_Driver/Src/stm32g4xx_hal_pwr_ex.c ****   *        HAL_PWREx_EnableGPIOPullUp() and HAL_PWREx_EnableGPIOPullDown() API's ensure there
 533:Drivers/STM32G4xx_HAL_Driver/Src/stm32g4xx_hal_pwr_ex.c ****   *        is no conflict when setting PUy or PDy bit.
 534:Drivers/STM32G4xx_HAL_Driver/Src/stm32g4xx_hal_pwr_ex.c ****   * @retval None
 535:Drivers/STM32G4xx_HAL_Driver/Src/stm32g4xx_hal_pwr_ex.c ****   */
 536:Drivers/STM32G4xx_HAL_Driver/Src/stm32g4xx_hal_pwr_ex.c **** void HAL_PWREx_EnablePullUpPullDownConfig(void)
 537:Drivers/STM32G4xx_HAL_Driver/Src/stm32g4xx_hal_pwr_ex.c **** {
 1057              		.loc 1 537 1 is_stmt 1 view -0
 1058              		.cfi_startproc
ARM GAS  /tmp/cc2lDYQJ.s 			page 30


 1059              		@ args = 0, pretend = 0, frame = 0
 1060              		@ frame_needed = 0, uses_anonymous_args = 0
 1061              		@ link register save eliminated.
 538:Drivers/STM32G4xx_HAL_Driver/Src/stm32g4xx_hal_pwr_ex.c ****   SET_BIT(PWR->CR3, PWR_CR3_APC);
 1062              		.loc 1 538 3 view .LVU264
 1063 0000 024A     		ldr	r2, .L90
 1064 0002 9368     		ldr	r3, [r2, #8]
 1065 0004 43F48063 		orr	r3, r3, #1024
 1066 0008 9360     		str	r3, [r2, #8]
 539:Drivers/STM32G4xx_HAL_Driver/Src/stm32g4xx_hal_pwr_ex.c **** }
 1067              		.loc 1 539 1 is_stmt 0 view .LVU265
 1068 000a 7047     		bx	lr
 1069              	.L91:
 1070              		.align	2
 1071              	.L90:
 1072 000c 00700040 		.word	1073770496
 1073              		.cfi_endproc
 1074              	.LFE339:
 1076              		.section	.text.HAL_PWREx_DisablePullUpPullDownConfig,"ax",%progbits
 1077              		.align	1
 1078              		.global	HAL_PWREx_DisablePullUpPullDownConfig
 1079              		.syntax unified
 1080              		.thumb
 1081              		.thumb_func
 1083              	HAL_PWREx_DisablePullUpPullDownConfig:
 1084              	.LFB340:
 540:Drivers/STM32G4xx_HAL_Driver/Src/stm32g4xx_hal_pwr_ex.c **** 
 541:Drivers/STM32G4xx_HAL_Driver/Src/stm32g4xx_hal_pwr_ex.c **** 
 542:Drivers/STM32G4xx_HAL_Driver/Src/stm32g4xx_hal_pwr_ex.c **** /**
 543:Drivers/STM32G4xx_HAL_Driver/Src/stm32g4xx_hal_pwr_ex.c ****   * @brief Disable pull-up and pull-down configuration.
 544:Drivers/STM32G4xx_HAL_Driver/Src/stm32g4xx_hal_pwr_ex.c ****   * @note  When APC bit is cleared, the I/O pull-up and pull-down configurations defined in
 545:Drivers/STM32G4xx_HAL_Driver/Src/stm32g4xx_hal_pwr_ex.c ****   *        PWR_PUCRx and PWR_PDCRx registers are not applied in Standby and Shutdown modes.
 546:Drivers/STM32G4xx_HAL_Driver/Src/stm32g4xx_hal_pwr_ex.c ****   * @retval None
 547:Drivers/STM32G4xx_HAL_Driver/Src/stm32g4xx_hal_pwr_ex.c ****   */
 548:Drivers/STM32G4xx_HAL_Driver/Src/stm32g4xx_hal_pwr_ex.c **** void HAL_PWREx_DisablePullUpPullDownConfig(void)
 549:Drivers/STM32G4xx_HAL_Driver/Src/stm32g4xx_hal_pwr_ex.c **** {
 1085              		.loc 1 549 1 is_stmt 1 view -0
 1086              		.cfi_startproc
 1087              		@ args = 0, pretend = 0, frame = 0
 1088              		@ frame_needed = 0, uses_anonymous_args = 0
 1089              		@ link register save eliminated.
 550:Drivers/STM32G4xx_HAL_Driver/Src/stm32g4xx_hal_pwr_ex.c ****   CLEAR_BIT(PWR->CR3, PWR_CR3_APC);
 1090              		.loc 1 550 3 view .LVU267
 1091 0000 024A     		ldr	r2, .L93
 1092 0002 9368     		ldr	r3, [r2, #8]
 1093 0004 23F48063 		bic	r3, r3, #1024
 1094 0008 9360     		str	r3, [r2, #8]
 551:Drivers/STM32G4xx_HAL_Driver/Src/stm32g4xx_hal_pwr_ex.c **** }
 1095              		.loc 1 551 1 is_stmt 0 view .LVU268
 1096 000a 7047     		bx	lr
 1097              	.L94:
 1098              		.align	2
 1099              	.L93:
 1100 000c 00700040 		.word	1073770496
 1101              		.cfi_endproc
 1102              	.LFE340:
 1104              		.section	.text.HAL_PWREx_EnableSRAM2ContentRetention,"ax",%progbits
ARM GAS  /tmp/cc2lDYQJ.s 			page 31


 1105              		.align	1
 1106              		.global	HAL_PWREx_EnableSRAM2ContentRetention
 1107              		.syntax unified
 1108              		.thumb
 1109              		.thumb_func
 1111              	HAL_PWREx_EnableSRAM2ContentRetention:
 1112              	.LFB341:
 552:Drivers/STM32G4xx_HAL_Driver/Src/stm32g4xx_hal_pwr_ex.c **** 
 553:Drivers/STM32G4xx_HAL_Driver/Src/stm32g4xx_hal_pwr_ex.c **** 
 554:Drivers/STM32G4xx_HAL_Driver/Src/stm32g4xx_hal_pwr_ex.c **** 
 555:Drivers/STM32G4xx_HAL_Driver/Src/stm32g4xx_hal_pwr_ex.c **** /**
 556:Drivers/STM32G4xx_HAL_Driver/Src/stm32g4xx_hal_pwr_ex.c ****   * @brief Enable SRAM2 content retention in Standby mode.
 557:Drivers/STM32G4xx_HAL_Driver/Src/stm32g4xx_hal_pwr_ex.c ****   * @note  When RRS bit is set, SRAM2 is powered by the low-power regulator in
 558:Drivers/STM32G4xx_HAL_Driver/Src/stm32g4xx_hal_pwr_ex.c ****   *         Standby mode and its content is kept.
 559:Drivers/STM32G4xx_HAL_Driver/Src/stm32g4xx_hal_pwr_ex.c ****   * @retval None
 560:Drivers/STM32G4xx_HAL_Driver/Src/stm32g4xx_hal_pwr_ex.c ****   */
 561:Drivers/STM32G4xx_HAL_Driver/Src/stm32g4xx_hal_pwr_ex.c **** void HAL_PWREx_EnableSRAM2ContentRetention(void)
 562:Drivers/STM32G4xx_HAL_Driver/Src/stm32g4xx_hal_pwr_ex.c **** {
 1113              		.loc 1 562 1 is_stmt 1 view -0
 1114              		.cfi_startproc
 1115              		@ args = 0, pretend = 0, frame = 0
 1116              		@ frame_needed = 0, uses_anonymous_args = 0
 1117              		@ link register save eliminated.
 563:Drivers/STM32G4xx_HAL_Driver/Src/stm32g4xx_hal_pwr_ex.c ****   SET_BIT(PWR->CR3, PWR_CR3_RRS);
 1118              		.loc 1 563 3 view .LVU270
 1119 0000 024A     		ldr	r2, .L96
 1120 0002 9368     		ldr	r3, [r2, #8]
 1121 0004 43F48073 		orr	r3, r3, #256
 1122 0008 9360     		str	r3, [r2, #8]
 564:Drivers/STM32G4xx_HAL_Driver/Src/stm32g4xx_hal_pwr_ex.c **** }
 1123              		.loc 1 564 1 is_stmt 0 view .LVU271
 1124 000a 7047     		bx	lr
 1125              	.L97:
 1126              		.align	2
 1127              	.L96:
 1128 000c 00700040 		.word	1073770496
 1129              		.cfi_endproc
 1130              	.LFE341:
 1132              		.section	.text.HAL_PWREx_DisableSRAM2ContentRetention,"ax",%progbits
 1133              		.align	1
 1134              		.global	HAL_PWREx_DisableSRAM2ContentRetention
 1135              		.syntax unified
 1136              		.thumb
 1137              		.thumb_func
 1139              	HAL_PWREx_DisableSRAM2ContentRetention:
 1140              	.LFB342:
 565:Drivers/STM32G4xx_HAL_Driver/Src/stm32g4xx_hal_pwr_ex.c **** 
 566:Drivers/STM32G4xx_HAL_Driver/Src/stm32g4xx_hal_pwr_ex.c **** 
 567:Drivers/STM32G4xx_HAL_Driver/Src/stm32g4xx_hal_pwr_ex.c **** /**
 568:Drivers/STM32G4xx_HAL_Driver/Src/stm32g4xx_hal_pwr_ex.c ****   * @brief Disable SRAM2 content retention in Standby mode.
 569:Drivers/STM32G4xx_HAL_Driver/Src/stm32g4xx_hal_pwr_ex.c ****   * @note  When RRS bit is reset, SRAM2 is powered off in Standby mode
 570:Drivers/STM32G4xx_HAL_Driver/Src/stm32g4xx_hal_pwr_ex.c ****   *        and its content is lost.
 571:Drivers/STM32G4xx_HAL_Driver/Src/stm32g4xx_hal_pwr_ex.c ****   * @retval None
 572:Drivers/STM32G4xx_HAL_Driver/Src/stm32g4xx_hal_pwr_ex.c ****   */
 573:Drivers/STM32G4xx_HAL_Driver/Src/stm32g4xx_hal_pwr_ex.c **** void HAL_PWREx_DisableSRAM2ContentRetention(void)
 574:Drivers/STM32G4xx_HAL_Driver/Src/stm32g4xx_hal_pwr_ex.c **** {
 1141              		.loc 1 574 1 is_stmt 1 view -0
ARM GAS  /tmp/cc2lDYQJ.s 			page 32


 1142              		.cfi_startproc
 1143              		@ args = 0, pretend = 0, frame = 0
 1144              		@ frame_needed = 0, uses_anonymous_args = 0
 1145              		@ link register save eliminated.
 575:Drivers/STM32G4xx_HAL_Driver/Src/stm32g4xx_hal_pwr_ex.c ****   CLEAR_BIT(PWR->CR3, PWR_CR3_RRS);
 1146              		.loc 1 575 3 view .LVU273
 1147 0000 024A     		ldr	r2, .L99
 1148 0002 9368     		ldr	r3, [r2, #8]
 1149 0004 23F48073 		bic	r3, r3, #256
 1150 0008 9360     		str	r3, [r2, #8]
 576:Drivers/STM32G4xx_HAL_Driver/Src/stm32g4xx_hal_pwr_ex.c **** }
 1151              		.loc 1 576 1 is_stmt 0 view .LVU274
 1152 000a 7047     		bx	lr
 1153              	.L100:
 1154              		.align	2
 1155              	.L99:
 1156 000c 00700040 		.word	1073770496
 1157              		.cfi_endproc
 1158              	.LFE342:
 1160              		.section	.text.HAL_PWREx_EnablePVM1,"ax",%progbits
 1161              		.align	1
 1162              		.global	HAL_PWREx_EnablePVM1
 1163              		.syntax unified
 1164              		.thumb
 1165              		.thumb_func
 1167              	HAL_PWREx_EnablePVM1:
 1168              	.LFB343:
 577:Drivers/STM32G4xx_HAL_Driver/Src/stm32g4xx_hal_pwr_ex.c **** 
 578:Drivers/STM32G4xx_HAL_Driver/Src/stm32g4xx_hal_pwr_ex.c **** 
 579:Drivers/STM32G4xx_HAL_Driver/Src/stm32g4xx_hal_pwr_ex.c **** 
 580:Drivers/STM32G4xx_HAL_Driver/Src/stm32g4xx_hal_pwr_ex.c **** 
 581:Drivers/STM32G4xx_HAL_Driver/Src/stm32g4xx_hal_pwr_ex.c **** #if defined(PWR_CR2_PVME1)
 582:Drivers/STM32G4xx_HAL_Driver/Src/stm32g4xx_hal_pwr_ex.c **** /**
 583:Drivers/STM32G4xx_HAL_Driver/Src/stm32g4xx_hal_pwr_ex.c ****   * @brief Enable the Power Voltage Monitoring 1: VDDA versus FASTCOMP minimum voltage.
 584:Drivers/STM32G4xx_HAL_Driver/Src/stm32g4xx_hal_pwr_ex.c ****   * @retval None
 585:Drivers/STM32G4xx_HAL_Driver/Src/stm32g4xx_hal_pwr_ex.c ****   */
 586:Drivers/STM32G4xx_HAL_Driver/Src/stm32g4xx_hal_pwr_ex.c **** void HAL_PWREx_EnablePVM1(void)
 587:Drivers/STM32G4xx_HAL_Driver/Src/stm32g4xx_hal_pwr_ex.c **** {
 1169              		.loc 1 587 1 is_stmt 1 view -0
 1170              		.cfi_startproc
 1171              		@ args = 0, pretend = 0, frame = 0
 1172              		@ frame_needed = 0, uses_anonymous_args = 0
 1173              		@ link register save eliminated.
 588:Drivers/STM32G4xx_HAL_Driver/Src/stm32g4xx_hal_pwr_ex.c ****   SET_BIT(PWR->CR2, PWR_PVM_1);
 1174              		.loc 1 588 3 view .LVU276
 1175 0000 024A     		ldr	r2, .L102
 1176 0002 5368     		ldr	r3, [r2, #4]
 1177 0004 43F01003 		orr	r3, r3, #16
 1178 0008 5360     		str	r3, [r2, #4]
 589:Drivers/STM32G4xx_HAL_Driver/Src/stm32g4xx_hal_pwr_ex.c **** }
 1179              		.loc 1 589 1 is_stmt 0 view .LVU277
 1180 000a 7047     		bx	lr
 1181              	.L103:
 1182              		.align	2
 1183              	.L102:
 1184 000c 00700040 		.word	1073770496
 1185              		.cfi_endproc
ARM GAS  /tmp/cc2lDYQJ.s 			page 33


 1186              	.LFE343:
 1188              		.section	.text.HAL_PWREx_DisablePVM1,"ax",%progbits
 1189              		.align	1
 1190              		.global	HAL_PWREx_DisablePVM1
 1191              		.syntax unified
 1192              		.thumb
 1193              		.thumb_func
 1195              	HAL_PWREx_DisablePVM1:
 1196              	.LFB344:
 590:Drivers/STM32G4xx_HAL_Driver/Src/stm32g4xx_hal_pwr_ex.c **** 
 591:Drivers/STM32G4xx_HAL_Driver/Src/stm32g4xx_hal_pwr_ex.c **** /**
 592:Drivers/STM32G4xx_HAL_Driver/Src/stm32g4xx_hal_pwr_ex.c ****   * @brief Disable the Power Voltage Monitoring 1: VDDA versus FASTCOMP minimum voltage.
 593:Drivers/STM32G4xx_HAL_Driver/Src/stm32g4xx_hal_pwr_ex.c ****   * @retval None
 594:Drivers/STM32G4xx_HAL_Driver/Src/stm32g4xx_hal_pwr_ex.c ****   */
 595:Drivers/STM32G4xx_HAL_Driver/Src/stm32g4xx_hal_pwr_ex.c **** void HAL_PWREx_DisablePVM1(void)
 596:Drivers/STM32G4xx_HAL_Driver/Src/stm32g4xx_hal_pwr_ex.c **** {
 1197              		.loc 1 596 1 is_stmt 1 view -0
 1198              		.cfi_startproc
 1199              		@ args = 0, pretend = 0, frame = 0
 1200              		@ frame_needed = 0, uses_anonymous_args = 0
 1201              		@ link register save eliminated.
 597:Drivers/STM32G4xx_HAL_Driver/Src/stm32g4xx_hal_pwr_ex.c ****   CLEAR_BIT(PWR->CR2, PWR_PVM_1);
 1202              		.loc 1 597 3 view .LVU279
 1203 0000 024A     		ldr	r2, .L105
 1204 0002 5368     		ldr	r3, [r2, #4]
 1205 0004 23F01003 		bic	r3, r3, #16
 1206 0008 5360     		str	r3, [r2, #4]
 598:Drivers/STM32G4xx_HAL_Driver/Src/stm32g4xx_hal_pwr_ex.c **** }
 1207              		.loc 1 598 1 is_stmt 0 view .LVU280
 1208 000a 7047     		bx	lr
 1209              	.L106:
 1210              		.align	2
 1211              	.L105:
 1212 000c 00700040 		.word	1073770496
 1213              		.cfi_endproc
 1214              	.LFE344:
 1216              		.section	.text.HAL_PWREx_EnablePVM2,"ax",%progbits
 1217              		.align	1
 1218              		.global	HAL_PWREx_EnablePVM2
 1219              		.syntax unified
 1220              		.thumb
 1221              		.thumb_func
 1223              	HAL_PWREx_EnablePVM2:
 1224              	.LFB345:
 599:Drivers/STM32G4xx_HAL_Driver/Src/stm32g4xx_hal_pwr_ex.c **** #endif /* PWR_CR2_PVME1 */
 600:Drivers/STM32G4xx_HAL_Driver/Src/stm32g4xx_hal_pwr_ex.c **** 
 601:Drivers/STM32G4xx_HAL_Driver/Src/stm32g4xx_hal_pwr_ex.c **** 
 602:Drivers/STM32G4xx_HAL_Driver/Src/stm32g4xx_hal_pwr_ex.c **** #if defined(PWR_CR2_PVME2)
 603:Drivers/STM32G4xx_HAL_Driver/Src/stm32g4xx_hal_pwr_ex.c **** /**
 604:Drivers/STM32G4xx_HAL_Driver/Src/stm32g4xx_hal_pwr_ex.c ****   * @brief Enable the Power Voltage Monitoring 2: VDDA versus FASTDAC minimum voltage.
 605:Drivers/STM32G4xx_HAL_Driver/Src/stm32g4xx_hal_pwr_ex.c ****   * @retval None
 606:Drivers/STM32G4xx_HAL_Driver/Src/stm32g4xx_hal_pwr_ex.c ****   */
 607:Drivers/STM32G4xx_HAL_Driver/Src/stm32g4xx_hal_pwr_ex.c **** void HAL_PWREx_EnablePVM2(void)
 608:Drivers/STM32G4xx_HAL_Driver/Src/stm32g4xx_hal_pwr_ex.c **** {
 1225              		.loc 1 608 1 is_stmt 1 view -0
 1226              		.cfi_startproc
 1227              		@ args = 0, pretend = 0, frame = 0
ARM GAS  /tmp/cc2lDYQJ.s 			page 34


 1228              		@ frame_needed = 0, uses_anonymous_args = 0
 1229              		@ link register save eliminated.
 609:Drivers/STM32G4xx_HAL_Driver/Src/stm32g4xx_hal_pwr_ex.c ****   SET_BIT(PWR->CR2, PWR_PVM_2);
 1230              		.loc 1 609 3 view .LVU282
 1231 0000 024A     		ldr	r2, .L108
 1232 0002 5368     		ldr	r3, [r2, #4]
 1233 0004 43F02003 		orr	r3, r3, #32
 1234 0008 5360     		str	r3, [r2, #4]
 610:Drivers/STM32G4xx_HAL_Driver/Src/stm32g4xx_hal_pwr_ex.c **** }
 1235              		.loc 1 610 1 is_stmt 0 view .LVU283
 1236 000a 7047     		bx	lr
 1237              	.L109:
 1238              		.align	2
 1239              	.L108:
 1240 000c 00700040 		.word	1073770496
 1241              		.cfi_endproc
 1242              	.LFE345:
 1244              		.section	.text.HAL_PWREx_DisablePVM2,"ax",%progbits
 1245              		.align	1
 1246              		.global	HAL_PWREx_DisablePVM2
 1247              		.syntax unified
 1248              		.thumb
 1249              		.thumb_func
 1251              	HAL_PWREx_DisablePVM2:
 1252              	.LFB346:
 611:Drivers/STM32G4xx_HAL_Driver/Src/stm32g4xx_hal_pwr_ex.c **** 
 612:Drivers/STM32G4xx_HAL_Driver/Src/stm32g4xx_hal_pwr_ex.c **** /**
 613:Drivers/STM32G4xx_HAL_Driver/Src/stm32g4xx_hal_pwr_ex.c ****   * @brief Disable the Power Voltage Monitoring 2: VDDA versus FASTDAC minimum voltage.
 614:Drivers/STM32G4xx_HAL_Driver/Src/stm32g4xx_hal_pwr_ex.c ****   * @retval None
 615:Drivers/STM32G4xx_HAL_Driver/Src/stm32g4xx_hal_pwr_ex.c ****   */
 616:Drivers/STM32G4xx_HAL_Driver/Src/stm32g4xx_hal_pwr_ex.c **** void HAL_PWREx_DisablePVM2(void)
 617:Drivers/STM32G4xx_HAL_Driver/Src/stm32g4xx_hal_pwr_ex.c **** {
 1253              		.loc 1 617 1 is_stmt 1 view -0
 1254              		.cfi_startproc
 1255              		@ args = 0, pretend = 0, frame = 0
 1256              		@ frame_needed = 0, uses_anonymous_args = 0
 1257              		@ link register save eliminated.
 618:Drivers/STM32G4xx_HAL_Driver/Src/stm32g4xx_hal_pwr_ex.c ****   CLEAR_BIT(PWR->CR2, PWR_PVM_2);
 1258              		.loc 1 618 3 view .LVU285
 1259 0000 024A     		ldr	r2, .L111
 1260 0002 5368     		ldr	r3, [r2, #4]
 1261 0004 23F02003 		bic	r3, r3, #32
 1262 0008 5360     		str	r3, [r2, #4]
 619:Drivers/STM32G4xx_HAL_Driver/Src/stm32g4xx_hal_pwr_ex.c **** }
 1263              		.loc 1 619 1 is_stmt 0 view .LVU286
 1264 000a 7047     		bx	lr
 1265              	.L112:
 1266              		.align	2
 1267              	.L111:
 1268 000c 00700040 		.word	1073770496
 1269              		.cfi_endproc
 1270              	.LFE346:
 1272              		.section	.text.HAL_PWREx_EnablePVM3,"ax",%progbits
 1273              		.align	1
 1274              		.global	HAL_PWREx_EnablePVM3
 1275              		.syntax unified
 1276              		.thumb
ARM GAS  /tmp/cc2lDYQJ.s 			page 35


 1277              		.thumb_func
 1279              	HAL_PWREx_EnablePVM3:
 1280              	.LFB347:
 620:Drivers/STM32G4xx_HAL_Driver/Src/stm32g4xx_hal_pwr_ex.c **** #endif /* PWR_CR2_PVME2 */
 621:Drivers/STM32G4xx_HAL_Driver/Src/stm32g4xx_hal_pwr_ex.c **** 
 622:Drivers/STM32G4xx_HAL_Driver/Src/stm32g4xx_hal_pwr_ex.c **** 
 623:Drivers/STM32G4xx_HAL_Driver/Src/stm32g4xx_hal_pwr_ex.c **** /**
 624:Drivers/STM32G4xx_HAL_Driver/Src/stm32g4xx_hal_pwr_ex.c ****   * @brief Enable the Power Voltage Monitoring 3: VDDA versus ADC minimum voltage 1.62V.
 625:Drivers/STM32G4xx_HAL_Driver/Src/stm32g4xx_hal_pwr_ex.c ****   * @retval None
 626:Drivers/STM32G4xx_HAL_Driver/Src/stm32g4xx_hal_pwr_ex.c ****   */
 627:Drivers/STM32G4xx_HAL_Driver/Src/stm32g4xx_hal_pwr_ex.c **** void HAL_PWREx_EnablePVM3(void)
 628:Drivers/STM32G4xx_HAL_Driver/Src/stm32g4xx_hal_pwr_ex.c **** {
 1281              		.loc 1 628 1 is_stmt 1 view -0
 1282              		.cfi_startproc
 1283              		@ args = 0, pretend = 0, frame = 0
 1284              		@ frame_needed = 0, uses_anonymous_args = 0
 1285              		@ link register save eliminated.
 629:Drivers/STM32G4xx_HAL_Driver/Src/stm32g4xx_hal_pwr_ex.c ****   SET_BIT(PWR->CR2, PWR_PVM_3);
 1286              		.loc 1 629 3 view .LVU288
 1287 0000 024A     		ldr	r2, .L114
 1288 0002 5368     		ldr	r3, [r2, #4]
 1289 0004 43F04003 		orr	r3, r3, #64
 1290 0008 5360     		str	r3, [r2, #4]
 630:Drivers/STM32G4xx_HAL_Driver/Src/stm32g4xx_hal_pwr_ex.c **** }
 1291              		.loc 1 630 1 is_stmt 0 view .LVU289
 1292 000a 7047     		bx	lr
 1293              	.L115:
 1294              		.align	2
 1295              	.L114:
 1296 000c 00700040 		.word	1073770496
 1297              		.cfi_endproc
 1298              	.LFE347:
 1300              		.section	.text.HAL_PWREx_DisablePVM3,"ax",%progbits
 1301              		.align	1
 1302              		.global	HAL_PWREx_DisablePVM3
 1303              		.syntax unified
 1304              		.thumb
 1305              		.thumb_func
 1307              	HAL_PWREx_DisablePVM3:
 1308              	.LFB348:
 631:Drivers/STM32G4xx_HAL_Driver/Src/stm32g4xx_hal_pwr_ex.c **** 
 632:Drivers/STM32G4xx_HAL_Driver/Src/stm32g4xx_hal_pwr_ex.c **** /**
 633:Drivers/STM32G4xx_HAL_Driver/Src/stm32g4xx_hal_pwr_ex.c ****   * @brief Disable the Power Voltage Monitoring 3: VDDA versus ADC minimum voltage 1.62V.
 634:Drivers/STM32G4xx_HAL_Driver/Src/stm32g4xx_hal_pwr_ex.c ****   * @retval None
 635:Drivers/STM32G4xx_HAL_Driver/Src/stm32g4xx_hal_pwr_ex.c ****   */
 636:Drivers/STM32G4xx_HAL_Driver/Src/stm32g4xx_hal_pwr_ex.c **** void HAL_PWREx_DisablePVM3(void)
 637:Drivers/STM32G4xx_HAL_Driver/Src/stm32g4xx_hal_pwr_ex.c **** {
 1309              		.loc 1 637 1 is_stmt 1 view -0
 1310              		.cfi_startproc
 1311              		@ args = 0, pretend = 0, frame = 0
 1312              		@ frame_needed = 0, uses_anonymous_args = 0
 1313              		@ link register save eliminated.
 638:Drivers/STM32G4xx_HAL_Driver/Src/stm32g4xx_hal_pwr_ex.c ****   CLEAR_BIT(PWR->CR2, PWR_PVM_3);
 1314              		.loc 1 638 3 view .LVU291
 1315 0000 024A     		ldr	r2, .L117
 1316 0002 5368     		ldr	r3, [r2, #4]
 1317 0004 23F04003 		bic	r3, r3, #64
ARM GAS  /tmp/cc2lDYQJ.s 			page 36


 1318 0008 5360     		str	r3, [r2, #4]
 639:Drivers/STM32G4xx_HAL_Driver/Src/stm32g4xx_hal_pwr_ex.c **** }
 1319              		.loc 1 639 1 is_stmt 0 view .LVU292
 1320 000a 7047     		bx	lr
 1321              	.L118:
 1322              		.align	2
 1323              	.L117:
 1324 000c 00700040 		.word	1073770496
 1325              		.cfi_endproc
 1326              	.LFE348:
 1328              		.section	.text.HAL_PWREx_EnablePVM4,"ax",%progbits
 1329              		.align	1
 1330              		.global	HAL_PWREx_EnablePVM4
 1331              		.syntax unified
 1332              		.thumb
 1333              		.thumb_func
 1335              	HAL_PWREx_EnablePVM4:
 1336              	.LFB349:
 640:Drivers/STM32G4xx_HAL_Driver/Src/stm32g4xx_hal_pwr_ex.c **** 
 641:Drivers/STM32G4xx_HAL_Driver/Src/stm32g4xx_hal_pwr_ex.c **** 
 642:Drivers/STM32G4xx_HAL_Driver/Src/stm32g4xx_hal_pwr_ex.c **** /**
 643:Drivers/STM32G4xx_HAL_Driver/Src/stm32g4xx_hal_pwr_ex.c ****   * @brief Enable the Power Voltage Monitoring 4: VDDA versus OPAMP/DAC minimum voltage 1.8V.
 644:Drivers/STM32G4xx_HAL_Driver/Src/stm32g4xx_hal_pwr_ex.c ****   * @retval None
 645:Drivers/STM32G4xx_HAL_Driver/Src/stm32g4xx_hal_pwr_ex.c ****   */
 646:Drivers/STM32G4xx_HAL_Driver/Src/stm32g4xx_hal_pwr_ex.c **** void HAL_PWREx_EnablePVM4(void)
 647:Drivers/STM32G4xx_HAL_Driver/Src/stm32g4xx_hal_pwr_ex.c **** {
 1337              		.loc 1 647 1 is_stmt 1 view -0
 1338              		.cfi_startproc
 1339              		@ args = 0, pretend = 0, frame = 0
 1340              		@ frame_needed = 0, uses_anonymous_args = 0
 1341              		@ link register save eliminated.
 648:Drivers/STM32G4xx_HAL_Driver/Src/stm32g4xx_hal_pwr_ex.c ****   SET_BIT(PWR->CR2, PWR_PVM_4);
 1342              		.loc 1 648 3 view .LVU294
 1343 0000 024A     		ldr	r2, .L120
 1344 0002 5368     		ldr	r3, [r2, #4]
 1345 0004 43F08003 		orr	r3, r3, #128
 1346 0008 5360     		str	r3, [r2, #4]
 649:Drivers/STM32G4xx_HAL_Driver/Src/stm32g4xx_hal_pwr_ex.c **** }
 1347              		.loc 1 649 1 is_stmt 0 view .LVU295
 1348 000a 7047     		bx	lr
 1349              	.L121:
 1350              		.align	2
 1351              	.L120:
 1352 000c 00700040 		.word	1073770496
 1353              		.cfi_endproc
 1354              	.LFE349:
 1356              		.section	.text.HAL_PWREx_DisablePVM4,"ax",%progbits
 1357              		.align	1
 1358              		.global	HAL_PWREx_DisablePVM4
 1359              		.syntax unified
 1360              		.thumb
 1361              		.thumb_func
 1363              	HAL_PWREx_DisablePVM4:
 1364              	.LFB350:
 650:Drivers/STM32G4xx_HAL_Driver/Src/stm32g4xx_hal_pwr_ex.c **** 
 651:Drivers/STM32G4xx_HAL_Driver/Src/stm32g4xx_hal_pwr_ex.c **** /**
 652:Drivers/STM32G4xx_HAL_Driver/Src/stm32g4xx_hal_pwr_ex.c ****   * @brief Disable the Power Voltage Monitoring 4: VDDA versus OPAMP/DAC minimum voltage 1.8V.
ARM GAS  /tmp/cc2lDYQJ.s 			page 37


 653:Drivers/STM32G4xx_HAL_Driver/Src/stm32g4xx_hal_pwr_ex.c ****   * @retval None
 654:Drivers/STM32G4xx_HAL_Driver/Src/stm32g4xx_hal_pwr_ex.c ****   */
 655:Drivers/STM32G4xx_HAL_Driver/Src/stm32g4xx_hal_pwr_ex.c **** void HAL_PWREx_DisablePVM4(void)
 656:Drivers/STM32G4xx_HAL_Driver/Src/stm32g4xx_hal_pwr_ex.c **** {
 1365              		.loc 1 656 1 is_stmt 1 view -0
 1366              		.cfi_startproc
 1367              		@ args = 0, pretend = 0, frame = 0
 1368              		@ frame_needed = 0, uses_anonymous_args = 0
 1369              		@ link register save eliminated.
 657:Drivers/STM32G4xx_HAL_Driver/Src/stm32g4xx_hal_pwr_ex.c ****   CLEAR_BIT(PWR->CR2, PWR_PVM_4);
 1370              		.loc 1 657 3 view .LVU297
 1371 0000 024A     		ldr	r2, .L123
 1372 0002 5368     		ldr	r3, [r2, #4]
 1373 0004 23F08003 		bic	r3, r3, #128
 1374 0008 5360     		str	r3, [r2, #4]
 658:Drivers/STM32G4xx_HAL_Driver/Src/stm32g4xx_hal_pwr_ex.c **** }
 1375              		.loc 1 658 1 is_stmt 0 view .LVU298
 1376 000a 7047     		bx	lr
 1377              	.L124:
 1378              		.align	2
 1379              	.L123:
 1380 000c 00700040 		.word	1073770496
 1381              		.cfi_endproc
 1382              	.LFE350:
 1384              		.section	.text.HAL_PWREx_ConfigPVM,"ax",%progbits
 1385              		.align	1
 1386              		.global	HAL_PWREx_ConfigPVM
 1387              		.syntax unified
 1388              		.thumb
 1389              		.thumb_func
 1391              	HAL_PWREx_ConfigPVM:
 1392              	.LVL98:
 1393              	.LFB351:
 659:Drivers/STM32G4xx_HAL_Driver/Src/stm32g4xx_hal_pwr_ex.c **** 
 660:Drivers/STM32G4xx_HAL_Driver/Src/stm32g4xx_hal_pwr_ex.c **** 
 661:Drivers/STM32G4xx_HAL_Driver/Src/stm32g4xx_hal_pwr_ex.c **** 
 662:Drivers/STM32G4xx_HAL_Driver/Src/stm32g4xx_hal_pwr_ex.c **** 
 663:Drivers/STM32G4xx_HAL_Driver/Src/stm32g4xx_hal_pwr_ex.c **** /**
 664:Drivers/STM32G4xx_HAL_Driver/Src/stm32g4xx_hal_pwr_ex.c ****   * @brief Configure the Peripheral Voltage Monitoring (PVM).
 665:Drivers/STM32G4xx_HAL_Driver/Src/stm32g4xx_hal_pwr_ex.c ****   * @param sConfigPVM: pointer to a PWR_PVMTypeDef structure that contains the
 666:Drivers/STM32G4xx_HAL_Driver/Src/stm32g4xx_hal_pwr_ex.c ****   *        PVM configuration information.
 667:Drivers/STM32G4xx_HAL_Driver/Src/stm32g4xx_hal_pwr_ex.c ****   * @note The API configures a single PVM according to the information contained
 668:Drivers/STM32G4xx_HAL_Driver/Src/stm32g4xx_hal_pwr_ex.c ****   *       in the input structure. To configure several PVMs, the API must be singly
 669:Drivers/STM32G4xx_HAL_Driver/Src/stm32g4xx_hal_pwr_ex.c ****   *       called for each PVM used.
 670:Drivers/STM32G4xx_HAL_Driver/Src/stm32g4xx_hal_pwr_ex.c ****   * @note Refer to the electrical characteristics of your device datasheet for
 671:Drivers/STM32G4xx_HAL_Driver/Src/stm32g4xx_hal_pwr_ex.c ****   *         more details about the voltage thresholds corresponding to each
 672:Drivers/STM32G4xx_HAL_Driver/Src/stm32g4xx_hal_pwr_ex.c ****   *         detection level and to each monitored supply.
 673:Drivers/STM32G4xx_HAL_Driver/Src/stm32g4xx_hal_pwr_ex.c ****   * @retval HAL status
 674:Drivers/STM32G4xx_HAL_Driver/Src/stm32g4xx_hal_pwr_ex.c ****   */
 675:Drivers/STM32G4xx_HAL_Driver/Src/stm32g4xx_hal_pwr_ex.c **** HAL_StatusTypeDef HAL_PWREx_ConfigPVM(PWR_PVMTypeDef *sConfigPVM)
 676:Drivers/STM32G4xx_HAL_Driver/Src/stm32g4xx_hal_pwr_ex.c **** {
 1394              		.loc 1 676 1 is_stmt 1 view -0
 1395              		.cfi_startproc
 1396              		@ args = 0, pretend = 0, frame = 0
 1397              		@ frame_needed = 0, uses_anonymous_args = 0
 1398              		@ link register save eliminated.
 677:Drivers/STM32G4xx_HAL_Driver/Src/stm32g4xx_hal_pwr_ex.c ****   HAL_StatusTypeDef status = HAL_OK;
ARM GAS  /tmp/cc2lDYQJ.s 			page 38


 1399              		.loc 1 677 3 view .LVU300
 678:Drivers/STM32G4xx_HAL_Driver/Src/stm32g4xx_hal_pwr_ex.c **** 
 679:Drivers/STM32G4xx_HAL_Driver/Src/stm32g4xx_hal_pwr_ex.c ****   /* Check the parameters */
 680:Drivers/STM32G4xx_HAL_Driver/Src/stm32g4xx_hal_pwr_ex.c ****   assert_param(IS_PWR_PVM_TYPE(sConfigPVM->PVMType));
 1400              		.loc 1 680 3 view .LVU301
 681:Drivers/STM32G4xx_HAL_Driver/Src/stm32g4xx_hal_pwr_ex.c ****   assert_param(IS_PWR_PVM_MODE(sConfigPVM->Mode));
 1401              		.loc 1 681 3 view .LVU302
 682:Drivers/STM32G4xx_HAL_Driver/Src/stm32g4xx_hal_pwr_ex.c **** 
 683:Drivers/STM32G4xx_HAL_Driver/Src/stm32g4xx_hal_pwr_ex.c **** 
 684:Drivers/STM32G4xx_HAL_Driver/Src/stm32g4xx_hal_pwr_ex.c ****   /* Configure EXTI 35 to 38 interrupts if so required:
 685:Drivers/STM32G4xx_HAL_Driver/Src/stm32g4xx_hal_pwr_ex.c ****      scan through PVMType to detect which PVMx is set and
 686:Drivers/STM32G4xx_HAL_Driver/Src/stm32g4xx_hal_pwr_ex.c ****      configure the corresponding EXTI line accordingly. */
 687:Drivers/STM32G4xx_HAL_Driver/Src/stm32g4xx_hal_pwr_ex.c ****   switch (sConfigPVM->PVMType)
 1402              		.loc 1 687 3 view .LVU303
 1403              		.loc 1 687 21 is_stmt 0 view .LVU304
 1404 0000 0368     		ldr	r3, [r0]
 1405              		.loc 1 687 3 view .LVU305
 1406 0002 402B     		cmp	r3, #64
 1407 0004 00F0B180 		beq	.L126
 1408 0008 3DD8     		bhi	.L127
 1409 000a 102B     		cmp	r3, #16
 1410 000c 76D0     		beq	.L128
 1411 000e 202B     		cmp	r3, #32
 1412 0010 37D1     		bne	.L148
 688:Drivers/STM32G4xx_HAL_Driver/Src/stm32g4xx_hal_pwr_ex.c ****   {
 689:Drivers/STM32G4xx_HAL_Driver/Src/stm32g4xx_hal_pwr_ex.c **** #if defined(PWR_CR2_PVME1)
 690:Drivers/STM32G4xx_HAL_Driver/Src/stm32g4xx_hal_pwr_ex.c ****     case PWR_PVM_1:
 691:Drivers/STM32G4xx_HAL_Driver/Src/stm32g4xx_hal_pwr_ex.c ****       /* Clear any previous config. Keep it clear if no event or IT mode is selected */
 692:Drivers/STM32G4xx_HAL_Driver/Src/stm32g4xx_hal_pwr_ex.c ****       __HAL_PWR_PVM1_EXTI_DISABLE_EVENT();
 693:Drivers/STM32G4xx_HAL_Driver/Src/stm32g4xx_hal_pwr_ex.c ****       __HAL_PWR_PVM1_EXTI_DISABLE_IT();
 694:Drivers/STM32G4xx_HAL_Driver/Src/stm32g4xx_hal_pwr_ex.c ****       __HAL_PWR_PVM1_EXTI_DISABLE_FALLING_EDGE();
 695:Drivers/STM32G4xx_HAL_Driver/Src/stm32g4xx_hal_pwr_ex.c ****       __HAL_PWR_PVM1_EXTI_DISABLE_RISING_EDGE();
 696:Drivers/STM32G4xx_HAL_Driver/Src/stm32g4xx_hal_pwr_ex.c **** 
 697:Drivers/STM32G4xx_HAL_Driver/Src/stm32g4xx_hal_pwr_ex.c ****       /* Configure interrupt mode */
 698:Drivers/STM32G4xx_HAL_Driver/Src/stm32g4xx_hal_pwr_ex.c ****       if((sConfigPVM->Mode & PVM_MODE_IT) == PVM_MODE_IT)
 699:Drivers/STM32G4xx_HAL_Driver/Src/stm32g4xx_hal_pwr_ex.c ****       {
 700:Drivers/STM32G4xx_HAL_Driver/Src/stm32g4xx_hal_pwr_ex.c ****         __HAL_PWR_PVM1_EXTI_ENABLE_IT();
 701:Drivers/STM32G4xx_HAL_Driver/Src/stm32g4xx_hal_pwr_ex.c ****       }
 702:Drivers/STM32G4xx_HAL_Driver/Src/stm32g4xx_hal_pwr_ex.c **** 
 703:Drivers/STM32G4xx_HAL_Driver/Src/stm32g4xx_hal_pwr_ex.c ****       /* Configure event mode */
 704:Drivers/STM32G4xx_HAL_Driver/Src/stm32g4xx_hal_pwr_ex.c ****       if((sConfigPVM->Mode & PVM_MODE_EVT) == PVM_MODE_EVT)
 705:Drivers/STM32G4xx_HAL_Driver/Src/stm32g4xx_hal_pwr_ex.c ****       {
 706:Drivers/STM32G4xx_HAL_Driver/Src/stm32g4xx_hal_pwr_ex.c ****         __HAL_PWR_PVM1_EXTI_ENABLE_EVENT();
 707:Drivers/STM32G4xx_HAL_Driver/Src/stm32g4xx_hal_pwr_ex.c ****       }
 708:Drivers/STM32G4xx_HAL_Driver/Src/stm32g4xx_hal_pwr_ex.c **** 
 709:Drivers/STM32G4xx_HAL_Driver/Src/stm32g4xx_hal_pwr_ex.c ****       /* Configure the edge */
 710:Drivers/STM32G4xx_HAL_Driver/Src/stm32g4xx_hal_pwr_ex.c ****       if((sConfigPVM->Mode & PVM_RISING_EDGE) == PVM_RISING_EDGE)
 711:Drivers/STM32G4xx_HAL_Driver/Src/stm32g4xx_hal_pwr_ex.c ****       {
 712:Drivers/STM32G4xx_HAL_Driver/Src/stm32g4xx_hal_pwr_ex.c ****         __HAL_PWR_PVM1_EXTI_ENABLE_RISING_EDGE();
 713:Drivers/STM32G4xx_HAL_Driver/Src/stm32g4xx_hal_pwr_ex.c ****       }
 714:Drivers/STM32G4xx_HAL_Driver/Src/stm32g4xx_hal_pwr_ex.c **** 
 715:Drivers/STM32G4xx_HAL_Driver/Src/stm32g4xx_hal_pwr_ex.c ****       if((sConfigPVM->Mode & PVM_FALLING_EDGE) == PVM_FALLING_EDGE)
 716:Drivers/STM32G4xx_HAL_Driver/Src/stm32g4xx_hal_pwr_ex.c ****       {
 717:Drivers/STM32G4xx_HAL_Driver/Src/stm32g4xx_hal_pwr_ex.c ****         __HAL_PWR_PVM1_EXTI_ENABLE_FALLING_EDGE();
 718:Drivers/STM32G4xx_HAL_Driver/Src/stm32g4xx_hal_pwr_ex.c ****       }
 719:Drivers/STM32G4xx_HAL_Driver/Src/stm32g4xx_hal_pwr_ex.c ****       break;
 720:Drivers/STM32G4xx_HAL_Driver/Src/stm32g4xx_hal_pwr_ex.c **** #endif /* PWR_CR2_PVME1 */
ARM GAS  /tmp/cc2lDYQJ.s 			page 39


 721:Drivers/STM32G4xx_HAL_Driver/Src/stm32g4xx_hal_pwr_ex.c **** 
 722:Drivers/STM32G4xx_HAL_Driver/Src/stm32g4xx_hal_pwr_ex.c **** #if defined(PWR_CR2_PVME2)
 723:Drivers/STM32G4xx_HAL_Driver/Src/stm32g4xx_hal_pwr_ex.c ****     case PWR_PVM_2:
 724:Drivers/STM32G4xx_HAL_Driver/Src/stm32g4xx_hal_pwr_ex.c ****       /* Clear any previous config. Keep it clear if no event or IT mode is selected */
 725:Drivers/STM32G4xx_HAL_Driver/Src/stm32g4xx_hal_pwr_ex.c ****       __HAL_PWR_PVM2_EXTI_DISABLE_EVENT();
 1413              		.loc 1 725 7 is_stmt 1 view .LVU306
 1414 0012 754B     		ldr	r3, .L150
 1415 0014 5A6A     		ldr	r2, [r3, #36]
 1416 0016 22F01002 		bic	r2, r2, #16
 1417 001a 5A62     		str	r2, [r3, #36]
 726:Drivers/STM32G4xx_HAL_Driver/Src/stm32g4xx_hal_pwr_ex.c ****       __HAL_PWR_PVM2_EXTI_DISABLE_IT();
 1418              		.loc 1 726 7 view .LVU307
 1419 001c 1A6A     		ldr	r2, [r3, #32]
 1420 001e 22F01002 		bic	r2, r2, #16
 1421 0022 1A62     		str	r2, [r3, #32]
 727:Drivers/STM32G4xx_HAL_Driver/Src/stm32g4xx_hal_pwr_ex.c ****       __HAL_PWR_PVM2_EXTI_DISABLE_FALLING_EDGE();
 1422              		.loc 1 727 7 view .LVU308
 1423 0024 DA6A     		ldr	r2, [r3, #44]
 1424 0026 22F01002 		bic	r2, r2, #16
 1425 002a DA62     		str	r2, [r3, #44]
 728:Drivers/STM32G4xx_HAL_Driver/Src/stm32g4xx_hal_pwr_ex.c ****       __HAL_PWR_PVM2_EXTI_DISABLE_RISING_EDGE();
 1426              		.loc 1 728 7 view .LVU309
 1427 002c 9A6A     		ldr	r2, [r3, #40]
 1428 002e 22F01002 		bic	r2, r2, #16
 1429 0032 9A62     		str	r2, [r3, #40]
 729:Drivers/STM32G4xx_HAL_Driver/Src/stm32g4xx_hal_pwr_ex.c **** 
 730:Drivers/STM32G4xx_HAL_Driver/Src/stm32g4xx_hal_pwr_ex.c ****       /* Configure interrupt mode */
 731:Drivers/STM32G4xx_HAL_Driver/Src/stm32g4xx_hal_pwr_ex.c ****       if((sConfigPVM->Mode & PVM_MODE_IT) == PVM_MODE_IT)
 1430              		.loc 1 731 7 view .LVU310
 1431              		.loc 1 731 21 is_stmt 0 view .LVU311
 1432 0034 4368     		ldr	r3, [r0, #4]
 1433              		.loc 1 731 9 view .LVU312
 1434 0036 13F4803F 		tst	r3, #65536
 1435 003a 04D0     		beq	.L135
 732:Drivers/STM32G4xx_HAL_Driver/Src/stm32g4xx_hal_pwr_ex.c ****       {
 733:Drivers/STM32G4xx_HAL_Driver/Src/stm32g4xx_hal_pwr_ex.c ****         __HAL_PWR_PVM2_EXTI_ENABLE_IT();
 1436              		.loc 1 733 9 is_stmt 1 view .LVU313
 1437 003c 6A4A     		ldr	r2, .L150
 1438 003e 136A     		ldr	r3, [r2, #32]
 1439 0040 43F01003 		orr	r3, r3, #16
 1440 0044 1362     		str	r3, [r2, #32]
 1441              	.L135:
 734:Drivers/STM32G4xx_HAL_Driver/Src/stm32g4xx_hal_pwr_ex.c ****       }
 735:Drivers/STM32G4xx_HAL_Driver/Src/stm32g4xx_hal_pwr_ex.c **** 
 736:Drivers/STM32G4xx_HAL_Driver/Src/stm32g4xx_hal_pwr_ex.c ****       /* Configure event mode */
 737:Drivers/STM32G4xx_HAL_Driver/Src/stm32g4xx_hal_pwr_ex.c ****       if((sConfigPVM->Mode & PVM_MODE_EVT) == PVM_MODE_EVT)
 1442              		.loc 1 737 7 view .LVU314
 1443              		.loc 1 737 21 is_stmt 0 view .LVU315
 1444 0046 4368     		ldr	r3, [r0, #4]
 1445              		.loc 1 737 9 view .LVU316
 1446 0048 13F4003F 		tst	r3, #131072
 1447 004c 04D0     		beq	.L136
 738:Drivers/STM32G4xx_HAL_Driver/Src/stm32g4xx_hal_pwr_ex.c ****       {
 739:Drivers/STM32G4xx_HAL_Driver/Src/stm32g4xx_hal_pwr_ex.c ****         __HAL_PWR_PVM2_EXTI_ENABLE_EVENT();
 1448              		.loc 1 739 9 is_stmt 1 view .LVU317
 1449 004e 664A     		ldr	r2, .L150
 1450 0050 536A     		ldr	r3, [r2, #36]
ARM GAS  /tmp/cc2lDYQJ.s 			page 40


 1451 0052 43F01003 		orr	r3, r3, #16
 1452 0056 5362     		str	r3, [r2, #36]
 1453              	.L136:
 740:Drivers/STM32G4xx_HAL_Driver/Src/stm32g4xx_hal_pwr_ex.c ****       }
 741:Drivers/STM32G4xx_HAL_Driver/Src/stm32g4xx_hal_pwr_ex.c **** 
 742:Drivers/STM32G4xx_HAL_Driver/Src/stm32g4xx_hal_pwr_ex.c ****       /* Configure the edge */
 743:Drivers/STM32G4xx_HAL_Driver/Src/stm32g4xx_hal_pwr_ex.c ****       if((sConfigPVM->Mode & PVM_RISING_EDGE) == PVM_RISING_EDGE)
 1454              		.loc 1 743 7 view .LVU318
 1455              		.loc 1 743 21 is_stmt 0 view .LVU319
 1456 0058 4368     		ldr	r3, [r0, #4]
 1457              		.loc 1 743 9 view .LVU320
 1458 005a 13F0010F 		tst	r3, #1
 1459 005e 04D0     		beq	.L137
 744:Drivers/STM32G4xx_HAL_Driver/Src/stm32g4xx_hal_pwr_ex.c ****       {
 745:Drivers/STM32G4xx_HAL_Driver/Src/stm32g4xx_hal_pwr_ex.c ****         __HAL_PWR_PVM2_EXTI_ENABLE_RISING_EDGE();
 1460              		.loc 1 745 9 is_stmt 1 view .LVU321
 1461 0060 614A     		ldr	r2, .L150
 1462 0062 936A     		ldr	r3, [r2, #40]
 1463 0064 43F01003 		orr	r3, r3, #16
 1464 0068 9362     		str	r3, [r2, #40]
 1465              	.L137:
 746:Drivers/STM32G4xx_HAL_Driver/Src/stm32g4xx_hal_pwr_ex.c ****       }
 747:Drivers/STM32G4xx_HAL_Driver/Src/stm32g4xx_hal_pwr_ex.c **** 
 748:Drivers/STM32G4xx_HAL_Driver/Src/stm32g4xx_hal_pwr_ex.c ****       if((sConfigPVM->Mode & PVM_FALLING_EDGE) == PVM_FALLING_EDGE)
 1466              		.loc 1 748 7 view .LVU322
 1467              		.loc 1 748 21 is_stmt 0 view .LVU323
 1468 006a 4368     		ldr	r3, [r0, #4]
 1469              		.loc 1 748 9 view .LVU324
 1470 006c 13F0020F 		tst	r3, #2
 1471 0070 00F0B480 		beq	.L145
 749:Drivers/STM32G4xx_HAL_Driver/Src/stm32g4xx_hal_pwr_ex.c ****       {
 750:Drivers/STM32G4xx_HAL_Driver/Src/stm32g4xx_hal_pwr_ex.c ****         __HAL_PWR_PVM2_EXTI_ENABLE_FALLING_EDGE();
 1472              		.loc 1 750 9 is_stmt 1 view .LVU325
 1473 0074 5C4A     		ldr	r2, .L150
 1474 0076 D36A     		ldr	r3, [r2, #44]
 1475 0078 43F01003 		orr	r3, r3, #16
 1476 007c D362     		str	r3, [r2, #44]
 677:Drivers/STM32G4xx_HAL_Driver/Src/stm32g4xx_hal_pwr_ex.c **** 
 1477              		.loc 1 677 21 is_stmt 0 view .LVU326
 1478 007e 0020     		movs	r0, #0
 1479              	.LVL99:
 677:Drivers/STM32G4xx_HAL_Driver/Src/stm32g4xx_hal_pwr_ex.c **** 
 1480              		.loc 1 677 21 view .LVU327
 1481 0080 7047     		bx	lr
 1482              	.LVL100:
 1483              	.L148:
 687:Drivers/STM32G4xx_HAL_Driver/Src/stm32g4xx_hal_pwr_ex.c ****   {
 1484              		.loc 1 687 3 view .LVU328
 1485 0082 0120     		movs	r0, #1
 1486              	.LVL101:
 687:Drivers/STM32G4xx_HAL_Driver/Src/stm32g4xx_hal_pwr_ex.c ****   {
 1487              		.loc 1 687 3 view .LVU329
 1488 0084 7047     		bx	lr
 1489              	.LVL102:
 1490              	.L127:
 687:Drivers/STM32G4xx_HAL_Driver/Src/stm32g4xx_hal_pwr_ex.c ****   {
 1491              		.loc 1 687 3 view .LVU330
ARM GAS  /tmp/cc2lDYQJ.s 			page 41


 1492 0086 802B     		cmp	r3, #128
 1493 0088 36D1     		bne	.L149
 751:Drivers/STM32G4xx_HAL_Driver/Src/stm32g4xx_hal_pwr_ex.c ****       }
 752:Drivers/STM32G4xx_HAL_Driver/Src/stm32g4xx_hal_pwr_ex.c ****       break;
 753:Drivers/STM32G4xx_HAL_Driver/Src/stm32g4xx_hal_pwr_ex.c **** #endif /* PWR_CR2_PVME2 */
 754:Drivers/STM32G4xx_HAL_Driver/Src/stm32g4xx_hal_pwr_ex.c **** 
 755:Drivers/STM32G4xx_HAL_Driver/Src/stm32g4xx_hal_pwr_ex.c ****     case PWR_PVM_3:
 756:Drivers/STM32G4xx_HAL_Driver/Src/stm32g4xx_hal_pwr_ex.c ****       /* Clear any previous config. Keep it clear if no event or IT mode is selected */
 757:Drivers/STM32G4xx_HAL_Driver/Src/stm32g4xx_hal_pwr_ex.c ****       __HAL_PWR_PVM3_EXTI_DISABLE_EVENT();
 758:Drivers/STM32G4xx_HAL_Driver/Src/stm32g4xx_hal_pwr_ex.c ****       __HAL_PWR_PVM3_EXTI_DISABLE_IT();
 759:Drivers/STM32G4xx_HAL_Driver/Src/stm32g4xx_hal_pwr_ex.c ****       __HAL_PWR_PVM3_EXTI_DISABLE_FALLING_EDGE();
 760:Drivers/STM32G4xx_HAL_Driver/Src/stm32g4xx_hal_pwr_ex.c ****       __HAL_PWR_PVM3_EXTI_DISABLE_RISING_EDGE();
 761:Drivers/STM32G4xx_HAL_Driver/Src/stm32g4xx_hal_pwr_ex.c **** 
 762:Drivers/STM32G4xx_HAL_Driver/Src/stm32g4xx_hal_pwr_ex.c ****       /* Configure interrupt mode */
 763:Drivers/STM32G4xx_HAL_Driver/Src/stm32g4xx_hal_pwr_ex.c ****       if((sConfigPVM->Mode & PVM_MODE_IT) == PVM_MODE_IT)
 764:Drivers/STM32G4xx_HAL_Driver/Src/stm32g4xx_hal_pwr_ex.c ****       {
 765:Drivers/STM32G4xx_HAL_Driver/Src/stm32g4xx_hal_pwr_ex.c ****         __HAL_PWR_PVM3_EXTI_ENABLE_IT();
 766:Drivers/STM32G4xx_HAL_Driver/Src/stm32g4xx_hal_pwr_ex.c ****       }
 767:Drivers/STM32G4xx_HAL_Driver/Src/stm32g4xx_hal_pwr_ex.c **** 
 768:Drivers/STM32G4xx_HAL_Driver/Src/stm32g4xx_hal_pwr_ex.c ****       /* Configure event mode */
 769:Drivers/STM32G4xx_HAL_Driver/Src/stm32g4xx_hal_pwr_ex.c ****       if((sConfigPVM->Mode & PVM_MODE_EVT) == PVM_MODE_EVT)
 770:Drivers/STM32G4xx_HAL_Driver/Src/stm32g4xx_hal_pwr_ex.c ****       {
 771:Drivers/STM32G4xx_HAL_Driver/Src/stm32g4xx_hal_pwr_ex.c ****         __HAL_PWR_PVM3_EXTI_ENABLE_EVENT();
 772:Drivers/STM32G4xx_HAL_Driver/Src/stm32g4xx_hal_pwr_ex.c ****       }
 773:Drivers/STM32G4xx_HAL_Driver/Src/stm32g4xx_hal_pwr_ex.c **** 
 774:Drivers/STM32G4xx_HAL_Driver/Src/stm32g4xx_hal_pwr_ex.c ****       /* Configure the edge */
 775:Drivers/STM32G4xx_HAL_Driver/Src/stm32g4xx_hal_pwr_ex.c ****       if((sConfigPVM->Mode & PVM_RISING_EDGE) == PVM_RISING_EDGE)
 776:Drivers/STM32G4xx_HAL_Driver/Src/stm32g4xx_hal_pwr_ex.c ****       {
 777:Drivers/STM32G4xx_HAL_Driver/Src/stm32g4xx_hal_pwr_ex.c ****         __HAL_PWR_PVM3_EXTI_ENABLE_RISING_EDGE();
 778:Drivers/STM32G4xx_HAL_Driver/Src/stm32g4xx_hal_pwr_ex.c ****       }
 779:Drivers/STM32G4xx_HAL_Driver/Src/stm32g4xx_hal_pwr_ex.c **** 
 780:Drivers/STM32G4xx_HAL_Driver/Src/stm32g4xx_hal_pwr_ex.c ****       if((sConfigPVM->Mode & PVM_FALLING_EDGE) == PVM_FALLING_EDGE)
 781:Drivers/STM32G4xx_HAL_Driver/Src/stm32g4xx_hal_pwr_ex.c ****       {
 782:Drivers/STM32G4xx_HAL_Driver/Src/stm32g4xx_hal_pwr_ex.c ****         __HAL_PWR_PVM3_EXTI_ENABLE_FALLING_EDGE();
 783:Drivers/STM32G4xx_HAL_Driver/Src/stm32g4xx_hal_pwr_ex.c ****       }
 784:Drivers/STM32G4xx_HAL_Driver/Src/stm32g4xx_hal_pwr_ex.c ****       break;
 785:Drivers/STM32G4xx_HAL_Driver/Src/stm32g4xx_hal_pwr_ex.c **** 
 786:Drivers/STM32G4xx_HAL_Driver/Src/stm32g4xx_hal_pwr_ex.c ****     case PWR_PVM_4:
 787:Drivers/STM32G4xx_HAL_Driver/Src/stm32g4xx_hal_pwr_ex.c ****       /* Clear any previous config. Keep it clear if no event or IT mode is selected */
 788:Drivers/STM32G4xx_HAL_Driver/Src/stm32g4xx_hal_pwr_ex.c ****       __HAL_PWR_PVM4_EXTI_DISABLE_EVENT();
 1494              		.loc 1 788 7 is_stmt 1 view .LVU331
 1495 008a 574B     		ldr	r3, .L150
 1496 008c 5A6A     		ldr	r2, [r3, #36]
 1497 008e 22F04002 		bic	r2, r2, #64
 1498 0092 5A62     		str	r2, [r3, #36]
 789:Drivers/STM32G4xx_HAL_Driver/Src/stm32g4xx_hal_pwr_ex.c ****       __HAL_PWR_PVM4_EXTI_DISABLE_IT();
 1499              		.loc 1 789 7 view .LVU332
 1500 0094 1A6A     		ldr	r2, [r3, #32]
 1501 0096 22F04002 		bic	r2, r2, #64
 1502 009a 1A62     		str	r2, [r3, #32]
 790:Drivers/STM32G4xx_HAL_Driver/Src/stm32g4xx_hal_pwr_ex.c ****       __HAL_PWR_PVM4_EXTI_DISABLE_FALLING_EDGE();
 1503              		.loc 1 790 7 view .LVU333
 1504 009c DA6A     		ldr	r2, [r3, #44]
 1505 009e 22F04002 		bic	r2, r2, #64
 1506 00a2 DA62     		str	r2, [r3, #44]
 791:Drivers/STM32G4xx_HAL_Driver/Src/stm32g4xx_hal_pwr_ex.c ****       __HAL_PWR_PVM4_EXTI_DISABLE_RISING_EDGE();
 1507              		.loc 1 791 7 view .LVU334
ARM GAS  /tmp/cc2lDYQJ.s 			page 42


 1508 00a4 9A6A     		ldr	r2, [r3, #40]
 1509 00a6 22F04002 		bic	r2, r2, #64
 1510 00aa 9A62     		str	r2, [r3, #40]
 792:Drivers/STM32G4xx_HAL_Driver/Src/stm32g4xx_hal_pwr_ex.c **** 
 793:Drivers/STM32G4xx_HAL_Driver/Src/stm32g4xx_hal_pwr_ex.c ****       /* Configure interrupt mode */
 794:Drivers/STM32G4xx_HAL_Driver/Src/stm32g4xx_hal_pwr_ex.c ****       if((sConfigPVM->Mode & PVM_MODE_IT) == PVM_MODE_IT)
 1511              		.loc 1 794 7 view .LVU335
 1512              		.loc 1 794 21 is_stmt 0 view .LVU336
 1513 00ac 4368     		ldr	r3, [r0, #4]
 1514              		.loc 1 794 9 view .LVU337
 1515 00ae 13F4803F 		tst	r3, #65536
 1516 00b2 04D0     		beq	.L141
 795:Drivers/STM32G4xx_HAL_Driver/Src/stm32g4xx_hal_pwr_ex.c ****       {
 796:Drivers/STM32G4xx_HAL_Driver/Src/stm32g4xx_hal_pwr_ex.c ****         __HAL_PWR_PVM4_EXTI_ENABLE_IT();
 1517              		.loc 1 796 9 is_stmt 1 view .LVU338
 1518 00b4 4C4A     		ldr	r2, .L150
 1519 00b6 136A     		ldr	r3, [r2, #32]
 1520 00b8 43F04003 		orr	r3, r3, #64
 1521 00bc 1362     		str	r3, [r2, #32]
 1522              	.L141:
 797:Drivers/STM32G4xx_HAL_Driver/Src/stm32g4xx_hal_pwr_ex.c ****       }
 798:Drivers/STM32G4xx_HAL_Driver/Src/stm32g4xx_hal_pwr_ex.c **** 
 799:Drivers/STM32G4xx_HAL_Driver/Src/stm32g4xx_hal_pwr_ex.c ****       /* Configure event mode */
 800:Drivers/STM32G4xx_HAL_Driver/Src/stm32g4xx_hal_pwr_ex.c ****       if((sConfigPVM->Mode & PVM_MODE_EVT) == PVM_MODE_EVT)
 1523              		.loc 1 800 7 view .LVU339
 1524              		.loc 1 800 21 is_stmt 0 view .LVU340
 1525 00be 4368     		ldr	r3, [r0, #4]
 1526              		.loc 1 800 9 view .LVU341
 1527 00c0 13F4003F 		tst	r3, #131072
 1528 00c4 04D0     		beq	.L142
 801:Drivers/STM32G4xx_HAL_Driver/Src/stm32g4xx_hal_pwr_ex.c ****       {
 802:Drivers/STM32G4xx_HAL_Driver/Src/stm32g4xx_hal_pwr_ex.c ****         __HAL_PWR_PVM4_EXTI_ENABLE_EVENT();
 1529              		.loc 1 802 9 is_stmt 1 view .LVU342
 1530 00c6 484A     		ldr	r2, .L150
 1531 00c8 536A     		ldr	r3, [r2, #36]
 1532 00ca 43F04003 		orr	r3, r3, #64
 1533 00ce 5362     		str	r3, [r2, #36]
 1534              	.L142:
 803:Drivers/STM32G4xx_HAL_Driver/Src/stm32g4xx_hal_pwr_ex.c ****       }
 804:Drivers/STM32G4xx_HAL_Driver/Src/stm32g4xx_hal_pwr_ex.c **** 
 805:Drivers/STM32G4xx_HAL_Driver/Src/stm32g4xx_hal_pwr_ex.c ****       /* Configure the edge */
 806:Drivers/STM32G4xx_HAL_Driver/Src/stm32g4xx_hal_pwr_ex.c ****       if((sConfigPVM->Mode & PVM_RISING_EDGE) == PVM_RISING_EDGE)
 1535              		.loc 1 806 7 view .LVU343
 1536              		.loc 1 806 21 is_stmt 0 view .LVU344
 1537 00d0 4368     		ldr	r3, [r0, #4]
 1538              		.loc 1 806 9 view .LVU345
 1539 00d2 13F0010F 		tst	r3, #1
 1540 00d6 04D0     		beq	.L143
 807:Drivers/STM32G4xx_HAL_Driver/Src/stm32g4xx_hal_pwr_ex.c ****       {
 808:Drivers/STM32G4xx_HAL_Driver/Src/stm32g4xx_hal_pwr_ex.c ****         __HAL_PWR_PVM4_EXTI_ENABLE_RISING_EDGE();
 1541              		.loc 1 808 9 is_stmt 1 view .LVU346
 1542 00d8 434A     		ldr	r2, .L150
 1543 00da 936A     		ldr	r3, [r2, #40]
 1544 00dc 43F04003 		orr	r3, r3, #64
 1545 00e0 9362     		str	r3, [r2, #40]
 1546              	.L143:
 809:Drivers/STM32G4xx_HAL_Driver/Src/stm32g4xx_hal_pwr_ex.c ****       }
ARM GAS  /tmp/cc2lDYQJ.s 			page 43


 810:Drivers/STM32G4xx_HAL_Driver/Src/stm32g4xx_hal_pwr_ex.c **** 
 811:Drivers/STM32G4xx_HAL_Driver/Src/stm32g4xx_hal_pwr_ex.c ****       if((sConfigPVM->Mode & PVM_FALLING_EDGE) == PVM_FALLING_EDGE)
 1547              		.loc 1 811 7 view .LVU347
 1548              		.loc 1 811 21 is_stmt 0 view .LVU348
 1549 00e2 4368     		ldr	r3, [r0, #4]
 1550              		.loc 1 811 9 view .LVU349
 1551 00e4 13F0020F 		tst	r3, #2
 1552 00e8 7CD0     		beq	.L147
 812:Drivers/STM32G4xx_HAL_Driver/Src/stm32g4xx_hal_pwr_ex.c ****       {
 813:Drivers/STM32G4xx_HAL_Driver/Src/stm32g4xx_hal_pwr_ex.c ****         __HAL_PWR_PVM4_EXTI_ENABLE_FALLING_EDGE();
 1553              		.loc 1 813 9 is_stmt 1 view .LVU350
 1554 00ea 3F4A     		ldr	r2, .L150
 1555 00ec D36A     		ldr	r3, [r2, #44]
 1556 00ee 43F04003 		orr	r3, r3, #64
 1557 00f2 D362     		str	r3, [r2, #44]
 677:Drivers/STM32G4xx_HAL_Driver/Src/stm32g4xx_hal_pwr_ex.c **** 
 1558              		.loc 1 677 21 is_stmt 0 view .LVU351
 1559 00f4 0020     		movs	r0, #0
 1560              	.LVL103:
 677:Drivers/STM32G4xx_HAL_Driver/Src/stm32g4xx_hal_pwr_ex.c **** 
 1561              		.loc 1 677 21 view .LVU352
 1562 00f6 7047     		bx	lr
 1563              	.LVL104:
 1564              	.L149:
 687:Drivers/STM32G4xx_HAL_Driver/Src/stm32g4xx_hal_pwr_ex.c ****   {
 1565              		.loc 1 687 3 view .LVU353
 1566 00f8 0120     		movs	r0, #1
 1567              	.LVL105:
 687:Drivers/STM32G4xx_HAL_Driver/Src/stm32g4xx_hal_pwr_ex.c ****   {
 1568              		.loc 1 687 3 view .LVU354
 1569 00fa 7047     		bx	lr
 1570              	.LVL106:
 1571              	.L128:
 692:Drivers/STM32G4xx_HAL_Driver/Src/stm32g4xx_hal_pwr_ex.c ****       __HAL_PWR_PVM1_EXTI_DISABLE_IT();
 1572              		.loc 1 692 7 is_stmt 1 view .LVU355
 1573 00fc 3A4B     		ldr	r3, .L150
 1574 00fe 5A6A     		ldr	r2, [r3, #36]
 1575 0100 22F00802 		bic	r2, r2, #8
 1576 0104 5A62     		str	r2, [r3, #36]
 693:Drivers/STM32G4xx_HAL_Driver/Src/stm32g4xx_hal_pwr_ex.c ****       __HAL_PWR_PVM1_EXTI_DISABLE_FALLING_EDGE();
 1577              		.loc 1 693 7 view .LVU356
 1578 0106 1A6A     		ldr	r2, [r3, #32]
 1579 0108 22F00802 		bic	r2, r2, #8
 1580 010c 1A62     		str	r2, [r3, #32]
 694:Drivers/STM32G4xx_HAL_Driver/Src/stm32g4xx_hal_pwr_ex.c ****       __HAL_PWR_PVM1_EXTI_DISABLE_RISING_EDGE();
 1581              		.loc 1 694 7 view .LVU357
 1582 010e DA6A     		ldr	r2, [r3, #44]
 1583 0110 22F00802 		bic	r2, r2, #8
 1584 0114 DA62     		str	r2, [r3, #44]
 695:Drivers/STM32G4xx_HAL_Driver/Src/stm32g4xx_hal_pwr_ex.c **** 
 1585              		.loc 1 695 7 view .LVU358
 1586 0116 9A6A     		ldr	r2, [r3, #40]
 1587 0118 22F00802 		bic	r2, r2, #8
 1588 011c 9A62     		str	r2, [r3, #40]
 698:Drivers/STM32G4xx_HAL_Driver/Src/stm32g4xx_hal_pwr_ex.c ****       {
 1589              		.loc 1 698 7 view .LVU359
 698:Drivers/STM32G4xx_HAL_Driver/Src/stm32g4xx_hal_pwr_ex.c ****       {
ARM GAS  /tmp/cc2lDYQJ.s 			page 44


 1590              		.loc 1 698 21 is_stmt 0 view .LVU360
 1591 011e 4368     		ldr	r3, [r0, #4]
 698:Drivers/STM32G4xx_HAL_Driver/Src/stm32g4xx_hal_pwr_ex.c ****       {
 1592              		.loc 1 698 9 view .LVU361
 1593 0120 13F4803F 		tst	r3, #65536
 1594 0124 04D0     		beq	.L132
 700:Drivers/STM32G4xx_HAL_Driver/Src/stm32g4xx_hal_pwr_ex.c ****       }
 1595              		.loc 1 700 9 is_stmt 1 view .LVU362
 1596 0126 304A     		ldr	r2, .L150
 1597 0128 136A     		ldr	r3, [r2, #32]
 1598 012a 43F00803 		orr	r3, r3, #8
 1599 012e 1362     		str	r3, [r2, #32]
 1600              	.L132:
 704:Drivers/STM32G4xx_HAL_Driver/Src/stm32g4xx_hal_pwr_ex.c ****       {
 1601              		.loc 1 704 7 view .LVU363
 704:Drivers/STM32G4xx_HAL_Driver/Src/stm32g4xx_hal_pwr_ex.c ****       {
 1602              		.loc 1 704 21 is_stmt 0 view .LVU364
 1603 0130 4368     		ldr	r3, [r0, #4]
 704:Drivers/STM32G4xx_HAL_Driver/Src/stm32g4xx_hal_pwr_ex.c ****       {
 1604              		.loc 1 704 9 view .LVU365
 1605 0132 13F4003F 		tst	r3, #131072
 1606 0136 04D0     		beq	.L133
 706:Drivers/STM32G4xx_HAL_Driver/Src/stm32g4xx_hal_pwr_ex.c ****       }
 1607              		.loc 1 706 9 is_stmt 1 view .LVU366
 1608 0138 2B4A     		ldr	r2, .L150
 1609 013a 536A     		ldr	r3, [r2, #36]
 1610 013c 43F00803 		orr	r3, r3, #8
 1611 0140 5362     		str	r3, [r2, #36]
 1612              	.L133:
 710:Drivers/STM32G4xx_HAL_Driver/Src/stm32g4xx_hal_pwr_ex.c ****       {
 1613              		.loc 1 710 7 view .LVU367
 710:Drivers/STM32G4xx_HAL_Driver/Src/stm32g4xx_hal_pwr_ex.c ****       {
 1614              		.loc 1 710 21 is_stmt 0 view .LVU368
 1615 0142 4368     		ldr	r3, [r0, #4]
 710:Drivers/STM32G4xx_HAL_Driver/Src/stm32g4xx_hal_pwr_ex.c ****       {
 1616              		.loc 1 710 9 view .LVU369
 1617 0144 13F0010F 		tst	r3, #1
 1618 0148 04D0     		beq	.L134
 712:Drivers/STM32G4xx_HAL_Driver/Src/stm32g4xx_hal_pwr_ex.c ****       }
 1619              		.loc 1 712 9 is_stmt 1 view .LVU370
 1620 014a 274A     		ldr	r2, .L150
 1621 014c 936A     		ldr	r3, [r2, #40]
 1622 014e 43F00803 		orr	r3, r3, #8
 1623 0152 9362     		str	r3, [r2, #40]
 1624              	.L134:
 715:Drivers/STM32G4xx_HAL_Driver/Src/stm32g4xx_hal_pwr_ex.c ****       {
 1625              		.loc 1 715 7 view .LVU371
 715:Drivers/STM32G4xx_HAL_Driver/Src/stm32g4xx_hal_pwr_ex.c ****       {
 1626              		.loc 1 715 21 is_stmt 0 view .LVU372
 1627 0154 4368     		ldr	r3, [r0, #4]
 715:Drivers/STM32G4xx_HAL_Driver/Src/stm32g4xx_hal_pwr_ex.c ****       {
 1628              		.loc 1 715 9 view .LVU373
 1629 0156 13F0020F 		tst	r3, #2
 1630 015a 3DD0     		beq	.L144
 717:Drivers/STM32G4xx_HAL_Driver/Src/stm32g4xx_hal_pwr_ex.c ****       }
 1631              		.loc 1 717 9 is_stmt 1 view .LVU374
 1632 015c 224A     		ldr	r2, .L150
ARM GAS  /tmp/cc2lDYQJ.s 			page 45


 1633 015e D36A     		ldr	r3, [r2, #44]
 1634 0160 43F00803 		orr	r3, r3, #8
 1635 0164 D362     		str	r3, [r2, #44]
 677:Drivers/STM32G4xx_HAL_Driver/Src/stm32g4xx_hal_pwr_ex.c **** 
 1636              		.loc 1 677 21 is_stmt 0 view .LVU375
 1637 0166 0020     		movs	r0, #0
 1638              	.LVL107:
 677:Drivers/STM32G4xx_HAL_Driver/Src/stm32g4xx_hal_pwr_ex.c **** 
 1639              		.loc 1 677 21 view .LVU376
 1640 0168 7047     		bx	lr
 1641              	.LVL108:
 1642              	.L126:
 757:Drivers/STM32G4xx_HAL_Driver/Src/stm32g4xx_hal_pwr_ex.c ****       __HAL_PWR_PVM3_EXTI_DISABLE_IT();
 1643              		.loc 1 757 7 is_stmt 1 view .LVU377
 1644 016a 1F4B     		ldr	r3, .L150
 1645 016c 5A6A     		ldr	r2, [r3, #36]
 1646 016e 22F02002 		bic	r2, r2, #32
 1647 0172 5A62     		str	r2, [r3, #36]
 758:Drivers/STM32G4xx_HAL_Driver/Src/stm32g4xx_hal_pwr_ex.c ****       __HAL_PWR_PVM3_EXTI_DISABLE_FALLING_EDGE();
 1648              		.loc 1 758 7 view .LVU378
 1649 0174 1A6A     		ldr	r2, [r3, #32]
 1650 0176 22F02002 		bic	r2, r2, #32
 1651 017a 1A62     		str	r2, [r3, #32]
 759:Drivers/STM32G4xx_HAL_Driver/Src/stm32g4xx_hal_pwr_ex.c ****       __HAL_PWR_PVM3_EXTI_DISABLE_RISING_EDGE();
 1652              		.loc 1 759 7 view .LVU379
 1653 017c DA6A     		ldr	r2, [r3, #44]
 1654 017e 22F02002 		bic	r2, r2, #32
 1655 0182 DA62     		str	r2, [r3, #44]
 760:Drivers/STM32G4xx_HAL_Driver/Src/stm32g4xx_hal_pwr_ex.c **** 
 1656              		.loc 1 760 7 view .LVU380
 1657 0184 9A6A     		ldr	r2, [r3, #40]
 1658 0186 22F02002 		bic	r2, r2, #32
 1659 018a 9A62     		str	r2, [r3, #40]
 763:Drivers/STM32G4xx_HAL_Driver/Src/stm32g4xx_hal_pwr_ex.c ****       {
 1660              		.loc 1 763 7 view .LVU381
 763:Drivers/STM32G4xx_HAL_Driver/Src/stm32g4xx_hal_pwr_ex.c ****       {
 1661              		.loc 1 763 21 is_stmt 0 view .LVU382
 1662 018c 4368     		ldr	r3, [r0, #4]
 763:Drivers/STM32G4xx_HAL_Driver/Src/stm32g4xx_hal_pwr_ex.c ****       {
 1663              		.loc 1 763 9 view .LVU383
 1664 018e 13F4803F 		tst	r3, #65536
 1665 0192 04D0     		beq	.L138
 765:Drivers/STM32G4xx_HAL_Driver/Src/stm32g4xx_hal_pwr_ex.c ****       }
 1666              		.loc 1 765 9 is_stmt 1 view .LVU384
 1667 0194 144A     		ldr	r2, .L150
 1668 0196 136A     		ldr	r3, [r2, #32]
 1669 0198 43F02003 		orr	r3, r3, #32
 1670 019c 1362     		str	r3, [r2, #32]
 1671              	.L138:
 769:Drivers/STM32G4xx_HAL_Driver/Src/stm32g4xx_hal_pwr_ex.c ****       {
 1672              		.loc 1 769 7 view .LVU385
 769:Drivers/STM32G4xx_HAL_Driver/Src/stm32g4xx_hal_pwr_ex.c ****       {
 1673              		.loc 1 769 21 is_stmt 0 view .LVU386
 1674 019e 4368     		ldr	r3, [r0, #4]
 769:Drivers/STM32G4xx_HAL_Driver/Src/stm32g4xx_hal_pwr_ex.c ****       {
 1675              		.loc 1 769 9 view .LVU387
 1676 01a0 13F4003F 		tst	r3, #131072
ARM GAS  /tmp/cc2lDYQJ.s 			page 46


 1677 01a4 04D0     		beq	.L139
 771:Drivers/STM32G4xx_HAL_Driver/Src/stm32g4xx_hal_pwr_ex.c ****       }
 1678              		.loc 1 771 9 is_stmt 1 view .LVU388
 1679 01a6 104A     		ldr	r2, .L150
 1680 01a8 536A     		ldr	r3, [r2, #36]
 1681 01aa 43F02003 		orr	r3, r3, #32
 1682 01ae 5362     		str	r3, [r2, #36]
 1683              	.L139:
 775:Drivers/STM32G4xx_HAL_Driver/Src/stm32g4xx_hal_pwr_ex.c ****       {
 1684              		.loc 1 775 7 view .LVU389
 775:Drivers/STM32G4xx_HAL_Driver/Src/stm32g4xx_hal_pwr_ex.c ****       {
 1685              		.loc 1 775 21 is_stmt 0 view .LVU390
 1686 01b0 4368     		ldr	r3, [r0, #4]
 775:Drivers/STM32G4xx_HAL_Driver/Src/stm32g4xx_hal_pwr_ex.c ****       {
 1687              		.loc 1 775 9 view .LVU391
 1688 01b2 13F0010F 		tst	r3, #1
 1689 01b6 04D0     		beq	.L140
 777:Drivers/STM32G4xx_HAL_Driver/Src/stm32g4xx_hal_pwr_ex.c ****       }
 1690              		.loc 1 777 9 is_stmt 1 view .LVU392
 1691 01b8 0B4A     		ldr	r2, .L150
 1692 01ba 936A     		ldr	r3, [r2, #40]
 1693 01bc 43F02003 		orr	r3, r3, #32
 1694 01c0 9362     		str	r3, [r2, #40]
 1695              	.L140:
 780:Drivers/STM32G4xx_HAL_Driver/Src/stm32g4xx_hal_pwr_ex.c ****       {
 1696              		.loc 1 780 7 view .LVU393
 780:Drivers/STM32G4xx_HAL_Driver/Src/stm32g4xx_hal_pwr_ex.c ****       {
 1697              		.loc 1 780 21 is_stmt 0 view .LVU394
 1698 01c2 4368     		ldr	r3, [r0, #4]
 780:Drivers/STM32G4xx_HAL_Driver/Src/stm32g4xx_hal_pwr_ex.c ****       {
 1699              		.loc 1 780 9 view .LVU395
 1700 01c4 13F0020F 		tst	r3, #2
 1701 01c8 0AD0     		beq	.L146
 782:Drivers/STM32G4xx_HAL_Driver/Src/stm32g4xx_hal_pwr_ex.c ****       }
 1702              		.loc 1 782 9 is_stmt 1 view .LVU396
 1703 01ca 074A     		ldr	r2, .L150
 1704 01cc D36A     		ldr	r3, [r2, #44]
 1705 01ce 43F02003 		orr	r3, r3, #32
 1706 01d2 D362     		str	r3, [r2, #44]
 677:Drivers/STM32G4xx_HAL_Driver/Src/stm32g4xx_hal_pwr_ex.c **** 
 1707              		.loc 1 677 21 is_stmt 0 view .LVU397
 1708 01d4 0020     		movs	r0, #0
 1709              	.LVL109:
 677:Drivers/STM32G4xx_HAL_Driver/Src/stm32g4xx_hal_pwr_ex.c **** 
 1710              		.loc 1 677 21 view .LVU398
 1711 01d6 7047     		bx	lr
 1712              	.LVL110:
 1713              	.L144:
 677:Drivers/STM32G4xx_HAL_Driver/Src/stm32g4xx_hal_pwr_ex.c **** 
 1714              		.loc 1 677 21 view .LVU399
 1715 01d8 0020     		movs	r0, #0
 1716              	.LVL111:
 677:Drivers/STM32G4xx_HAL_Driver/Src/stm32g4xx_hal_pwr_ex.c **** 
 1717              		.loc 1 677 21 view .LVU400
 1718 01da 7047     		bx	lr
 1719              	.LVL112:
 1720              	.L145:
ARM GAS  /tmp/cc2lDYQJ.s 			page 47


 677:Drivers/STM32G4xx_HAL_Driver/Src/stm32g4xx_hal_pwr_ex.c **** 
 1721              		.loc 1 677 21 view .LVU401
 1722 01dc 0020     		movs	r0, #0
 1723              	.LVL113:
 677:Drivers/STM32G4xx_HAL_Driver/Src/stm32g4xx_hal_pwr_ex.c **** 
 1724              		.loc 1 677 21 view .LVU402
 1725 01de 7047     		bx	lr
 1726              	.LVL114:
 1727              	.L146:
 677:Drivers/STM32G4xx_HAL_Driver/Src/stm32g4xx_hal_pwr_ex.c **** 
 1728              		.loc 1 677 21 view .LVU403
 1729 01e0 0020     		movs	r0, #0
 1730              	.LVL115:
 677:Drivers/STM32G4xx_HAL_Driver/Src/stm32g4xx_hal_pwr_ex.c **** 
 1731              		.loc 1 677 21 view .LVU404
 1732 01e2 7047     		bx	lr
 1733              	.LVL116:
 1734              	.L147:
 677:Drivers/STM32G4xx_HAL_Driver/Src/stm32g4xx_hal_pwr_ex.c **** 
 1735              		.loc 1 677 21 view .LVU405
 1736 01e4 0020     		movs	r0, #0
 1737              	.LVL117:
 814:Drivers/STM32G4xx_HAL_Driver/Src/stm32g4xx_hal_pwr_ex.c ****       }
 815:Drivers/STM32G4xx_HAL_Driver/Src/stm32g4xx_hal_pwr_ex.c ****       break;
 816:Drivers/STM32G4xx_HAL_Driver/Src/stm32g4xx_hal_pwr_ex.c **** 
 817:Drivers/STM32G4xx_HAL_Driver/Src/stm32g4xx_hal_pwr_ex.c ****     default:
 818:Drivers/STM32G4xx_HAL_Driver/Src/stm32g4xx_hal_pwr_ex.c ****       status = HAL_ERROR;
 819:Drivers/STM32G4xx_HAL_Driver/Src/stm32g4xx_hal_pwr_ex.c ****       break;
 820:Drivers/STM32G4xx_HAL_Driver/Src/stm32g4xx_hal_pwr_ex.c ****   }
 821:Drivers/STM32G4xx_HAL_Driver/Src/stm32g4xx_hal_pwr_ex.c **** 
 822:Drivers/STM32G4xx_HAL_Driver/Src/stm32g4xx_hal_pwr_ex.c ****   return status;
 1738              		.loc 1 822 3 is_stmt 1 view .LVU406
 823:Drivers/STM32G4xx_HAL_Driver/Src/stm32g4xx_hal_pwr_ex.c **** }
 1739              		.loc 1 823 1 is_stmt 0 view .LVU407
 1740 01e6 7047     		bx	lr
 1741              	.L151:
 1742              		.align	2
 1743              	.L150:
 1744 01e8 00040140 		.word	1073808384
 1745              		.cfi_endproc
 1746              	.LFE351:
 1748              		.section	.text.HAL_PWREx_EnableLowPowerRunMode,"ax",%progbits
 1749              		.align	1
 1750              		.global	HAL_PWREx_EnableLowPowerRunMode
 1751              		.syntax unified
 1752              		.thumb
 1753              		.thumb_func
 1755              	HAL_PWREx_EnableLowPowerRunMode:
 1756              	.LFB352:
 824:Drivers/STM32G4xx_HAL_Driver/Src/stm32g4xx_hal_pwr_ex.c **** 
 825:Drivers/STM32G4xx_HAL_Driver/Src/stm32g4xx_hal_pwr_ex.c **** 
 826:Drivers/STM32G4xx_HAL_Driver/Src/stm32g4xx_hal_pwr_ex.c **** /**
 827:Drivers/STM32G4xx_HAL_Driver/Src/stm32g4xx_hal_pwr_ex.c ****   * @brief Enter Low-power Run mode
 828:Drivers/STM32G4xx_HAL_Driver/Src/stm32g4xx_hal_pwr_ex.c ****   * @note  In Low-power Run mode, all I/O pins keep the same state as in Run mode.
 829:Drivers/STM32G4xx_HAL_Driver/Src/stm32g4xx_hal_pwr_ex.c ****   * @note  When Regulator is set to PWR_LOWPOWERREGULATOR_ON, the user can optionally configure the
 830:Drivers/STM32G4xx_HAL_Driver/Src/stm32g4xx_hal_pwr_ex.c ****   *        Flash in power-down monde in setting the RUN_PD bit in FLASH_ACR register.
 831:Drivers/STM32G4xx_HAL_Driver/Src/stm32g4xx_hal_pwr_ex.c ****   *        Additionally, the clock frequency must be reduced below 2 MHz.
ARM GAS  /tmp/cc2lDYQJ.s 			page 48


 832:Drivers/STM32G4xx_HAL_Driver/Src/stm32g4xx_hal_pwr_ex.c ****   *        Setting RUN_PD in FLASH_ACR then appropriately reducing the clock frequency must
 833:Drivers/STM32G4xx_HAL_Driver/Src/stm32g4xx_hal_pwr_ex.c ****   *        be done before calling HAL_PWREx_EnableLowPowerRunMode() API.
 834:Drivers/STM32G4xx_HAL_Driver/Src/stm32g4xx_hal_pwr_ex.c ****   * @retval None
 835:Drivers/STM32G4xx_HAL_Driver/Src/stm32g4xx_hal_pwr_ex.c ****   */
 836:Drivers/STM32G4xx_HAL_Driver/Src/stm32g4xx_hal_pwr_ex.c **** void HAL_PWREx_EnableLowPowerRunMode(void)
 837:Drivers/STM32G4xx_HAL_Driver/Src/stm32g4xx_hal_pwr_ex.c **** {
 1757              		.loc 1 837 1 is_stmt 1 view -0
 1758              		.cfi_startproc
 1759              		@ args = 0, pretend = 0, frame = 0
 1760              		@ frame_needed = 0, uses_anonymous_args = 0
 1761              		@ link register save eliminated.
 838:Drivers/STM32G4xx_HAL_Driver/Src/stm32g4xx_hal_pwr_ex.c ****   /* Set Regulator parameter */
 839:Drivers/STM32G4xx_HAL_Driver/Src/stm32g4xx_hal_pwr_ex.c ****   SET_BIT(PWR->CR1, PWR_CR1_LPR);
 1762              		.loc 1 839 3 view .LVU409
 1763 0000 024A     		ldr	r2, .L153
 1764 0002 1368     		ldr	r3, [r2]
 1765 0004 43F48043 		orr	r3, r3, #16384
 1766 0008 1360     		str	r3, [r2]
 840:Drivers/STM32G4xx_HAL_Driver/Src/stm32g4xx_hal_pwr_ex.c **** }
 1767              		.loc 1 840 1 is_stmt 0 view .LVU410
 1768 000a 7047     		bx	lr
 1769              	.L154:
 1770              		.align	2
 1771              	.L153:
 1772 000c 00700040 		.word	1073770496
 1773              		.cfi_endproc
 1774              	.LFE352:
 1776              		.section	.text.HAL_PWREx_DisableLowPowerRunMode,"ax",%progbits
 1777              		.align	1
 1778              		.global	HAL_PWREx_DisableLowPowerRunMode
 1779              		.syntax unified
 1780              		.thumb
 1781              		.thumb_func
 1783              	HAL_PWREx_DisableLowPowerRunMode:
 1784              	.LFB353:
 841:Drivers/STM32G4xx_HAL_Driver/Src/stm32g4xx_hal_pwr_ex.c **** 
 842:Drivers/STM32G4xx_HAL_Driver/Src/stm32g4xx_hal_pwr_ex.c **** 
 843:Drivers/STM32G4xx_HAL_Driver/Src/stm32g4xx_hal_pwr_ex.c **** /**
 844:Drivers/STM32G4xx_HAL_Driver/Src/stm32g4xx_hal_pwr_ex.c ****   * @brief Exit Low-power Run mode.
 845:Drivers/STM32G4xx_HAL_Driver/Src/stm32g4xx_hal_pwr_ex.c ****   * @note  Before HAL_PWREx_DisableLowPowerRunMode() completion, the function checks that
 846:Drivers/STM32G4xx_HAL_Driver/Src/stm32g4xx_hal_pwr_ex.c ****   *        REGLPF has been properly reset (otherwise, HAL_PWREx_DisableLowPowerRunMode
 847:Drivers/STM32G4xx_HAL_Driver/Src/stm32g4xx_hal_pwr_ex.c ****   *        returns HAL_TIMEOUT status). The system clock frequency can then be
 848:Drivers/STM32G4xx_HAL_Driver/Src/stm32g4xx_hal_pwr_ex.c ****   *        increased above 2 MHz.
 849:Drivers/STM32G4xx_HAL_Driver/Src/stm32g4xx_hal_pwr_ex.c ****   * @retval HAL Status
 850:Drivers/STM32G4xx_HAL_Driver/Src/stm32g4xx_hal_pwr_ex.c ****   */
 851:Drivers/STM32G4xx_HAL_Driver/Src/stm32g4xx_hal_pwr_ex.c **** HAL_StatusTypeDef HAL_PWREx_DisableLowPowerRunMode(void)
 852:Drivers/STM32G4xx_HAL_Driver/Src/stm32g4xx_hal_pwr_ex.c **** {
 1785              		.loc 1 852 1 is_stmt 1 view -0
 1786              		.cfi_startproc
 1787              		@ args = 0, pretend = 0, frame = 0
 1788              		@ frame_needed = 0, uses_anonymous_args = 0
 1789              		@ link register save eliminated.
 853:Drivers/STM32G4xx_HAL_Driver/Src/stm32g4xx_hal_pwr_ex.c ****   uint32_t wait_loop_index;
 1790              		.loc 1 853 3 view .LVU412
 854:Drivers/STM32G4xx_HAL_Driver/Src/stm32g4xx_hal_pwr_ex.c **** 
 855:Drivers/STM32G4xx_HAL_Driver/Src/stm32g4xx_hal_pwr_ex.c ****   /* Clear LPR bit */
 856:Drivers/STM32G4xx_HAL_Driver/Src/stm32g4xx_hal_pwr_ex.c ****   CLEAR_BIT(PWR->CR1, PWR_CR1_LPR);
ARM GAS  /tmp/cc2lDYQJ.s 			page 49


 1791              		.loc 1 856 3 view .LVU413
 1792 0000 124A     		ldr	r2, .L161
 1793 0002 1368     		ldr	r3, [r2]
 1794 0004 23F48043 		bic	r3, r3, #16384
 1795 0008 1360     		str	r3, [r2]
 857:Drivers/STM32G4xx_HAL_Driver/Src/stm32g4xx_hal_pwr_ex.c **** 
 858:Drivers/STM32G4xx_HAL_Driver/Src/stm32g4xx_hal_pwr_ex.c ****   /* Wait until REGLPF is reset */
 859:Drivers/STM32G4xx_HAL_Driver/Src/stm32g4xx_hal_pwr_ex.c ****   wait_loop_index = (PWR_FLAG_SETTING_DELAY_US * (SystemCoreClock / 1000000U));
 1796              		.loc 1 859 3 view .LVU414
 1797              		.loc 1 859 67 is_stmt 0 view .LVU415
 1798 000a 114B     		ldr	r3, .L161+4
 1799 000c 1B68     		ldr	r3, [r3]
 1800 000e 02F14672 		add	r2, r2, #51904512
 1801 0012 02F55B32 		add	r2, r2, #224256
 1802 0016 02F28322 		addw	r2, r2, #643
 1803 001a A2FB0323 		umull	r2, r3, r2, r3
 1804 001e 9B0C     		lsrs	r3, r3, #18
 1805              		.loc 1 859 19 view .LVU416
 1806 0020 3222     		movs	r2, #50
 1807 0022 02FB03F3 		mul	r3, r2, r3
 1808              	.LVL118:
 860:Drivers/STM32G4xx_HAL_Driver/Src/stm32g4xx_hal_pwr_ex.c ****   while ((HAL_IS_BIT_SET(PWR->SR2, PWR_SR2_REGLPF)) && (wait_loop_index != 0U))
 1809              		.loc 1 860 3 is_stmt 1 view .LVU417
 1810              		.loc 1 860 9 is_stmt 0 view .LVU418
 1811 0026 00E0     		b	.L156
 1812              	.L158:
 861:Drivers/STM32G4xx_HAL_Driver/Src/stm32g4xx_hal_pwr_ex.c ****   {
 862:Drivers/STM32G4xx_HAL_Driver/Src/stm32g4xx_hal_pwr_ex.c ****     wait_loop_index--;
 1813              		.loc 1 862 5 is_stmt 1 view .LVU419
 1814              		.loc 1 862 20 is_stmt 0 view .LVU420
 1815 0028 013B     		subs	r3, r3, #1
 1816              	.LVL119:
 1817              	.L156:
 860:Drivers/STM32G4xx_HAL_Driver/Src/stm32g4xx_hal_pwr_ex.c ****   while ((HAL_IS_BIT_SET(PWR->SR2, PWR_SR2_REGLPF)) && (wait_loop_index != 0U))
 1818              		.loc 1 860 53 is_stmt 1 view .LVU421
 860:Drivers/STM32G4xx_HAL_Driver/Src/stm32g4xx_hal_pwr_ex.c ****   while ((HAL_IS_BIT_SET(PWR->SR2, PWR_SR2_REGLPF)) && (wait_loop_index != 0U))
 1819              		.loc 1 860 11 is_stmt 0 view .LVU422
 1820 002a 084A     		ldr	r2, .L161
 1821 002c 5269     		ldr	r2, [r2, #20]
 860:Drivers/STM32G4xx_HAL_Driver/Src/stm32g4xx_hal_pwr_ex.c ****   while ((HAL_IS_BIT_SET(PWR->SR2, PWR_SR2_REGLPF)) && (wait_loop_index != 0U))
 1822              		.loc 1 860 53 view .LVU423
 1823 002e 12F4007F 		tst	r2, #512
 1824 0032 01D0     		beq	.L157
 860:Drivers/STM32G4xx_HAL_Driver/Src/stm32g4xx_hal_pwr_ex.c ****   while ((HAL_IS_BIT_SET(PWR->SR2, PWR_SR2_REGLPF)) && (wait_loop_index != 0U))
 1825              		.loc 1 860 53 discriminator 1 view .LVU424
 1826 0034 002B     		cmp	r3, #0
 1827 0036 F7D1     		bne	.L158
 1828              	.L157:
 863:Drivers/STM32G4xx_HAL_Driver/Src/stm32g4xx_hal_pwr_ex.c ****   }
 864:Drivers/STM32G4xx_HAL_Driver/Src/stm32g4xx_hal_pwr_ex.c ****   if (HAL_IS_BIT_SET(PWR->SR2, PWR_SR2_REGLPF))
 1829              		.loc 1 864 3 is_stmt 1 view .LVU425
 1830              		.loc 1 864 7 is_stmt 0 view .LVU426
 1831 0038 044B     		ldr	r3, .L161
 1832              	.LVL120:
 1833              		.loc 1 864 7 view .LVU427
 1834 003a 5B69     		ldr	r3, [r3, #20]
 1835              		.loc 1 864 6 view .LVU428
ARM GAS  /tmp/cc2lDYQJ.s 			page 50


 1836 003c 13F4007F 		tst	r3, #512
 1837 0040 01D1     		bne	.L160
 865:Drivers/STM32G4xx_HAL_Driver/Src/stm32g4xx_hal_pwr_ex.c ****   {
 866:Drivers/STM32G4xx_HAL_Driver/Src/stm32g4xx_hal_pwr_ex.c ****     return HAL_TIMEOUT;
 867:Drivers/STM32G4xx_HAL_Driver/Src/stm32g4xx_hal_pwr_ex.c ****   }
 868:Drivers/STM32G4xx_HAL_Driver/Src/stm32g4xx_hal_pwr_ex.c **** 
 869:Drivers/STM32G4xx_HAL_Driver/Src/stm32g4xx_hal_pwr_ex.c ****   return HAL_OK;
 1838              		.loc 1 869 10 view .LVU429
 1839 0042 0020     		movs	r0, #0
 1840 0044 7047     		bx	lr
 1841              	.L160:
 866:Drivers/STM32G4xx_HAL_Driver/Src/stm32g4xx_hal_pwr_ex.c ****   }
 1842              		.loc 1 866 12 view .LVU430
 1843 0046 0320     		movs	r0, #3
 870:Drivers/STM32G4xx_HAL_Driver/Src/stm32g4xx_hal_pwr_ex.c **** }
 1844              		.loc 1 870 1 view .LVU431
 1845 0048 7047     		bx	lr
 1846              	.L162:
 1847 004a 00BF     		.align	2
 1848              	.L161:
 1849 004c 00700040 		.word	1073770496
 1850 0050 00000000 		.word	SystemCoreClock
 1851              		.cfi_endproc
 1852              	.LFE353:
 1854              		.section	.text.HAL_PWREx_EnterSTOP0Mode,"ax",%progbits
 1855              		.align	1
 1856              		.global	HAL_PWREx_EnterSTOP0Mode
 1857              		.syntax unified
 1858              		.thumb
 1859              		.thumb_func
 1861              	HAL_PWREx_EnterSTOP0Mode:
 1862              	.LVL121:
 1863              	.LFB354:
 871:Drivers/STM32G4xx_HAL_Driver/Src/stm32g4xx_hal_pwr_ex.c **** 
 872:Drivers/STM32G4xx_HAL_Driver/Src/stm32g4xx_hal_pwr_ex.c **** 
 873:Drivers/STM32G4xx_HAL_Driver/Src/stm32g4xx_hal_pwr_ex.c **** /**
 874:Drivers/STM32G4xx_HAL_Driver/Src/stm32g4xx_hal_pwr_ex.c ****   * @brief Enter Stop 0 mode.
 875:Drivers/STM32G4xx_HAL_Driver/Src/stm32g4xx_hal_pwr_ex.c ****   * @note  In Stop 0 mode, main and low voltage regulators are ON.
 876:Drivers/STM32G4xx_HAL_Driver/Src/stm32g4xx_hal_pwr_ex.c ****   * @note  In Stop 0 mode, all I/O pins keep the same state as in Run mode.
 877:Drivers/STM32G4xx_HAL_Driver/Src/stm32g4xx_hal_pwr_ex.c ****   * @note  All clocks in the VCORE domain are stopped; the PLL, the HSI
 878:Drivers/STM32G4xx_HAL_Driver/Src/stm32g4xx_hal_pwr_ex.c ****   *        and the HSE oscillators are disabled. Some peripherals with the wakeup capability
 879:Drivers/STM32G4xx_HAL_Driver/Src/stm32g4xx_hal_pwr_ex.c ****   *        (I2Cx, USARTx and LPUART) can switch on the HSI to receive a frame, and switch off the H
 880:Drivers/STM32G4xx_HAL_Driver/Src/stm32g4xx_hal_pwr_ex.c ****   *        after receiving the frame if it is not a wakeup frame. In this case, the HSI clock is pr
 881:Drivers/STM32G4xx_HAL_Driver/Src/stm32g4xx_hal_pwr_ex.c ****   *        only to the peripheral requesting it.
 882:Drivers/STM32G4xx_HAL_Driver/Src/stm32g4xx_hal_pwr_ex.c ****   *        SRAM1, SRAM2 and register contents are preserved.
 883:Drivers/STM32G4xx_HAL_Driver/Src/stm32g4xx_hal_pwr_ex.c ****   *        The BOR is available.
 884:Drivers/STM32G4xx_HAL_Driver/Src/stm32g4xx_hal_pwr_ex.c ****   * @note  When exiting Stop 0 mode by issuing an interrupt or a wakeup event,
 885:Drivers/STM32G4xx_HAL_Driver/Src/stm32g4xx_hal_pwr_ex.c ****   *         the HSI RC oscillator is selected as system clock if STOPWUCK bit in RCC_CFGR register
 886:Drivers/STM32G4xx_HAL_Driver/Src/stm32g4xx_hal_pwr_ex.c ****   *         is set; the HSI oscillator is selected if STOPWUCK is cleared.
 887:Drivers/STM32G4xx_HAL_Driver/Src/stm32g4xx_hal_pwr_ex.c ****   * @note  By keeping the internal regulator ON during Stop 0 mode, the consumption
 888:Drivers/STM32G4xx_HAL_Driver/Src/stm32g4xx_hal_pwr_ex.c ****   *         is higher although the startup time is reduced.
 889:Drivers/STM32G4xx_HAL_Driver/Src/stm32g4xx_hal_pwr_ex.c ****   * @param STOPEntry  specifies if Stop mode in entered with WFI or WFE instruction.
 890:Drivers/STM32G4xx_HAL_Driver/Src/stm32g4xx_hal_pwr_ex.c ****   *          This parameter can be one of the following values:
 891:Drivers/STM32G4xx_HAL_Driver/Src/stm32g4xx_hal_pwr_ex.c ****   *            @arg @ref PWR_STOPENTRY_WFI  Enter Stop mode with WFI instruction
 892:Drivers/STM32G4xx_HAL_Driver/Src/stm32g4xx_hal_pwr_ex.c ****   *            @arg @ref PWR_STOPENTRY_WFE  Enter Stop mode with WFE instruction
 893:Drivers/STM32G4xx_HAL_Driver/Src/stm32g4xx_hal_pwr_ex.c ****   * @retval None
 894:Drivers/STM32G4xx_HAL_Driver/Src/stm32g4xx_hal_pwr_ex.c ****   */
ARM GAS  /tmp/cc2lDYQJ.s 			page 51


 895:Drivers/STM32G4xx_HAL_Driver/Src/stm32g4xx_hal_pwr_ex.c **** void HAL_PWREx_EnterSTOP0Mode(uint8_t STOPEntry)
 896:Drivers/STM32G4xx_HAL_Driver/Src/stm32g4xx_hal_pwr_ex.c **** {
 1864              		.loc 1 896 1 is_stmt 1 view -0
 1865              		.cfi_startproc
 1866              		@ args = 0, pretend = 0, frame = 0
 1867              		@ frame_needed = 0, uses_anonymous_args = 0
 1868              		@ link register save eliminated.
 897:Drivers/STM32G4xx_HAL_Driver/Src/stm32g4xx_hal_pwr_ex.c ****   /* Check the parameters */
 898:Drivers/STM32G4xx_HAL_Driver/Src/stm32g4xx_hal_pwr_ex.c ****   assert_param(IS_PWR_STOP_ENTRY(STOPEntry));
 1869              		.loc 1 898 3 view .LVU433
 899:Drivers/STM32G4xx_HAL_Driver/Src/stm32g4xx_hal_pwr_ex.c **** 
 900:Drivers/STM32G4xx_HAL_Driver/Src/stm32g4xx_hal_pwr_ex.c ****   /* Stop 0 mode with Main Regulator */
 901:Drivers/STM32G4xx_HAL_Driver/Src/stm32g4xx_hal_pwr_ex.c ****   MODIFY_REG(PWR->CR1, PWR_CR1_LPMS, PWR_CR1_LPMS_STOP0);
 1870              		.loc 1 901 3 view .LVU434
 1871 0000 0B4A     		ldr	r2, .L167
 1872 0002 1368     		ldr	r3, [r2]
 1873 0004 23F00703 		bic	r3, r3, #7
 1874 0008 1360     		str	r3, [r2]
 902:Drivers/STM32G4xx_HAL_Driver/Src/stm32g4xx_hal_pwr_ex.c **** 
 903:Drivers/STM32G4xx_HAL_Driver/Src/stm32g4xx_hal_pwr_ex.c ****   /* Set SLEEPDEEP bit of Cortex System Control Register */
 904:Drivers/STM32G4xx_HAL_Driver/Src/stm32g4xx_hal_pwr_ex.c ****   SET_BIT(SCB->SCR, ((uint32_t)SCB_SCR_SLEEPDEEP_Msk));
 1875              		.loc 1 904 3 view .LVU435
 1876 000a 0A4A     		ldr	r2, .L167+4
 1877 000c 1369     		ldr	r3, [r2, #16]
 1878 000e 43F00403 		orr	r3, r3, #4
 1879 0012 1361     		str	r3, [r2, #16]
 905:Drivers/STM32G4xx_HAL_Driver/Src/stm32g4xx_hal_pwr_ex.c **** 
 906:Drivers/STM32G4xx_HAL_Driver/Src/stm32g4xx_hal_pwr_ex.c ****   /* Select Stop mode entry --------------------------------------------------*/
 907:Drivers/STM32G4xx_HAL_Driver/Src/stm32g4xx_hal_pwr_ex.c ****   if(STOPEntry == PWR_STOPENTRY_WFI)
 1880              		.loc 1 907 3 view .LVU436
 1881              		.loc 1 907 5 is_stmt 0 view .LVU437
 1882 0014 0128     		cmp	r0, #1
 1883 0016 08D0     		beq	.L166
 908:Drivers/STM32G4xx_HAL_Driver/Src/stm32g4xx_hal_pwr_ex.c ****   {
 909:Drivers/STM32G4xx_HAL_Driver/Src/stm32g4xx_hal_pwr_ex.c ****     /* Request Wait For Interrupt */
 910:Drivers/STM32G4xx_HAL_Driver/Src/stm32g4xx_hal_pwr_ex.c ****     __WFI();
 911:Drivers/STM32G4xx_HAL_Driver/Src/stm32g4xx_hal_pwr_ex.c ****   }
 912:Drivers/STM32G4xx_HAL_Driver/Src/stm32g4xx_hal_pwr_ex.c ****   else
 913:Drivers/STM32G4xx_HAL_Driver/Src/stm32g4xx_hal_pwr_ex.c ****   {
 914:Drivers/STM32G4xx_HAL_Driver/Src/stm32g4xx_hal_pwr_ex.c ****     /* Request Wait For Event */
 915:Drivers/STM32G4xx_HAL_Driver/Src/stm32g4xx_hal_pwr_ex.c ****     __SEV();
 1884              		.loc 1 915 5 is_stmt 1 view .LVU438
 1885              		.syntax unified
 1886              	@ 915 "Drivers/STM32G4xx_HAL_Driver/Src/stm32g4xx_hal_pwr_ex.c" 1
 1887 0018 40BF     		sev
 1888              	@ 0 "" 2
 916:Drivers/STM32G4xx_HAL_Driver/Src/stm32g4xx_hal_pwr_ex.c ****     __WFE();
 1889              		.loc 1 916 5 view .LVU439
 1890              	@ 916 "Drivers/STM32G4xx_HAL_Driver/Src/stm32g4xx_hal_pwr_ex.c" 1
 1891 001a 20BF     		wfe
 1892              	@ 0 "" 2
 917:Drivers/STM32G4xx_HAL_Driver/Src/stm32g4xx_hal_pwr_ex.c ****     __WFE();
 1893              		.loc 1 917 5 view .LVU440
 1894              	@ 917 "Drivers/STM32G4xx_HAL_Driver/Src/stm32g4xx_hal_pwr_ex.c" 1
 1895 001c 20BF     		wfe
 1896              	@ 0 "" 2
 1897              		.thumb
ARM GAS  /tmp/cc2lDYQJ.s 			page 52


 1898              		.syntax unified
 1899              	.L165:
 918:Drivers/STM32G4xx_HAL_Driver/Src/stm32g4xx_hal_pwr_ex.c ****   }
 919:Drivers/STM32G4xx_HAL_Driver/Src/stm32g4xx_hal_pwr_ex.c **** 
 920:Drivers/STM32G4xx_HAL_Driver/Src/stm32g4xx_hal_pwr_ex.c ****   /* Reset SLEEPDEEP bit of Cortex System Control Register */
 921:Drivers/STM32G4xx_HAL_Driver/Src/stm32g4xx_hal_pwr_ex.c ****   CLEAR_BIT(SCB->SCR, ((uint32_t)SCB_SCR_SLEEPDEEP_Msk));
 1900              		.loc 1 921 3 view .LVU441
 1901 001e 054A     		ldr	r2, .L167+4
 1902 0020 1369     		ldr	r3, [r2, #16]
 1903 0022 23F00403 		bic	r3, r3, #4
 1904 0026 1361     		str	r3, [r2, #16]
 922:Drivers/STM32G4xx_HAL_Driver/Src/stm32g4xx_hal_pwr_ex.c **** }
 1905              		.loc 1 922 1 is_stmt 0 view .LVU442
 1906 0028 7047     		bx	lr
 1907              	.L166:
 910:Drivers/STM32G4xx_HAL_Driver/Src/stm32g4xx_hal_pwr_ex.c ****   }
 1908              		.loc 1 910 5 is_stmt 1 view .LVU443
 1909              		.syntax unified
 1910              	@ 910 "Drivers/STM32G4xx_HAL_Driver/Src/stm32g4xx_hal_pwr_ex.c" 1
 1911 002a 30BF     		wfi
 1912              	@ 0 "" 2
 1913              		.thumb
 1914              		.syntax unified
 1915 002c F7E7     		b	.L165
 1916              	.L168:
 1917 002e 00BF     		.align	2
 1918              	.L167:
 1919 0030 00700040 		.word	1073770496
 1920 0034 00ED00E0 		.word	-536810240
 1921              		.cfi_endproc
 1922              	.LFE354:
 1924              		.section	.text.HAL_PWREx_EnterSTOP1Mode,"ax",%progbits
 1925              		.align	1
 1926              		.global	HAL_PWREx_EnterSTOP1Mode
 1927              		.syntax unified
 1928              		.thumb
 1929              		.thumb_func
 1931              	HAL_PWREx_EnterSTOP1Mode:
 1932              	.LVL122:
 1933              	.LFB355:
 923:Drivers/STM32G4xx_HAL_Driver/Src/stm32g4xx_hal_pwr_ex.c **** 
 924:Drivers/STM32G4xx_HAL_Driver/Src/stm32g4xx_hal_pwr_ex.c **** 
 925:Drivers/STM32G4xx_HAL_Driver/Src/stm32g4xx_hal_pwr_ex.c **** /**
 926:Drivers/STM32G4xx_HAL_Driver/Src/stm32g4xx_hal_pwr_ex.c ****   * @brief Enter Stop 1 mode.
 927:Drivers/STM32G4xx_HAL_Driver/Src/stm32g4xx_hal_pwr_ex.c ****   * @note  In Stop 1 mode, only low power voltage regulator is ON.
 928:Drivers/STM32G4xx_HAL_Driver/Src/stm32g4xx_hal_pwr_ex.c ****   * @note  In Stop 1 mode, all I/O pins keep the same state as in Run mode.
 929:Drivers/STM32G4xx_HAL_Driver/Src/stm32g4xx_hal_pwr_ex.c ****   * @note  All clocks in the VCORE domain are stopped; the PLL, the HSI
 930:Drivers/STM32G4xx_HAL_Driver/Src/stm32g4xx_hal_pwr_ex.c ****   *        and the HSE oscillators are disabled. Some peripherals with the wakeup capability
 931:Drivers/STM32G4xx_HAL_Driver/Src/stm32g4xx_hal_pwr_ex.c ****   *        (I2Cx, USARTx and LPUART) can switch on the HSI to receive a frame, and switch off the H
 932:Drivers/STM32G4xx_HAL_Driver/Src/stm32g4xx_hal_pwr_ex.c ****   *        after receiving the frame if it is not a wakeup frame. In this case, the HSI clock is pr
 933:Drivers/STM32G4xx_HAL_Driver/Src/stm32g4xx_hal_pwr_ex.c ****   *        only to the peripheral requesting it.
 934:Drivers/STM32G4xx_HAL_Driver/Src/stm32g4xx_hal_pwr_ex.c ****   *        SRAM1, SRAM2 and register contents are preserved.
 935:Drivers/STM32G4xx_HAL_Driver/Src/stm32g4xx_hal_pwr_ex.c ****   *        The BOR is available.
 936:Drivers/STM32G4xx_HAL_Driver/Src/stm32g4xx_hal_pwr_ex.c ****   * @note  When exiting Stop 1 mode by issuing an interrupt or a wakeup event,
 937:Drivers/STM32G4xx_HAL_Driver/Src/stm32g4xx_hal_pwr_ex.c ****   *         the HSI RC oscillator is selected as system clock if STOPWUCK bit in RCC_CFGR register
 938:Drivers/STM32G4xx_HAL_Driver/Src/stm32g4xx_hal_pwr_ex.c ****   *         is set.
 939:Drivers/STM32G4xx_HAL_Driver/Src/stm32g4xx_hal_pwr_ex.c ****   * @note  Due to low power mode, an additional startup delay is incurred when waking up from Stop 
ARM GAS  /tmp/cc2lDYQJ.s 			page 53


 940:Drivers/STM32G4xx_HAL_Driver/Src/stm32g4xx_hal_pwr_ex.c ****   * @param STOPEntry  specifies if Stop mode in entered with WFI or WFE instruction.
 941:Drivers/STM32G4xx_HAL_Driver/Src/stm32g4xx_hal_pwr_ex.c ****   *          This parameter can be one of the following values:
 942:Drivers/STM32G4xx_HAL_Driver/Src/stm32g4xx_hal_pwr_ex.c ****   *            @arg @ref PWR_STOPENTRY_WFI  Enter Stop mode with WFI instruction
 943:Drivers/STM32G4xx_HAL_Driver/Src/stm32g4xx_hal_pwr_ex.c ****   *            @arg @ref PWR_STOPENTRY_WFE  Enter Stop mode with WFE instruction
 944:Drivers/STM32G4xx_HAL_Driver/Src/stm32g4xx_hal_pwr_ex.c ****   * @retval None
 945:Drivers/STM32G4xx_HAL_Driver/Src/stm32g4xx_hal_pwr_ex.c ****   */
 946:Drivers/STM32G4xx_HAL_Driver/Src/stm32g4xx_hal_pwr_ex.c **** void HAL_PWREx_EnterSTOP1Mode(uint8_t STOPEntry)
 947:Drivers/STM32G4xx_HAL_Driver/Src/stm32g4xx_hal_pwr_ex.c **** {
 1934              		.loc 1 947 1 view -0
 1935              		.cfi_startproc
 1936              		@ args = 0, pretend = 0, frame = 0
 1937              		@ frame_needed = 0, uses_anonymous_args = 0
 1938              		@ link register save eliminated.
 948:Drivers/STM32G4xx_HAL_Driver/Src/stm32g4xx_hal_pwr_ex.c ****   /* Check the parameters */
 949:Drivers/STM32G4xx_HAL_Driver/Src/stm32g4xx_hal_pwr_ex.c ****   assert_param(IS_PWR_STOP_ENTRY(STOPEntry));
 1939              		.loc 1 949 3 view .LVU445
 950:Drivers/STM32G4xx_HAL_Driver/Src/stm32g4xx_hal_pwr_ex.c **** 
 951:Drivers/STM32G4xx_HAL_Driver/Src/stm32g4xx_hal_pwr_ex.c ****   /* Stop 1 mode with Low-Power Regulator */
 952:Drivers/STM32G4xx_HAL_Driver/Src/stm32g4xx_hal_pwr_ex.c ****   MODIFY_REG(PWR->CR1, PWR_CR1_LPMS, PWR_CR1_LPMS_STOP1);
 1940              		.loc 1 952 3 view .LVU446
 1941 0000 0C4A     		ldr	r2, .L173
 1942 0002 1368     		ldr	r3, [r2]
 1943 0004 23F00703 		bic	r3, r3, #7
 1944 0008 43F00103 		orr	r3, r3, #1
 1945 000c 1360     		str	r3, [r2]
 953:Drivers/STM32G4xx_HAL_Driver/Src/stm32g4xx_hal_pwr_ex.c **** 
 954:Drivers/STM32G4xx_HAL_Driver/Src/stm32g4xx_hal_pwr_ex.c ****   /* Set SLEEPDEEP bit of Cortex System Control Register */
 955:Drivers/STM32G4xx_HAL_Driver/Src/stm32g4xx_hal_pwr_ex.c ****   SET_BIT(SCB->SCR, ((uint32_t)SCB_SCR_SLEEPDEEP_Msk));
 1946              		.loc 1 955 3 view .LVU447
 1947 000e 0A4A     		ldr	r2, .L173+4
 1948 0010 1369     		ldr	r3, [r2, #16]
 1949 0012 43F00403 		orr	r3, r3, #4
 1950 0016 1361     		str	r3, [r2, #16]
 956:Drivers/STM32G4xx_HAL_Driver/Src/stm32g4xx_hal_pwr_ex.c **** 
 957:Drivers/STM32G4xx_HAL_Driver/Src/stm32g4xx_hal_pwr_ex.c ****   /* Select Stop mode entry --------------------------------------------------*/
 958:Drivers/STM32G4xx_HAL_Driver/Src/stm32g4xx_hal_pwr_ex.c ****   if(STOPEntry == PWR_STOPENTRY_WFI)
 1951              		.loc 1 958 3 view .LVU448
 1952              		.loc 1 958 5 is_stmt 0 view .LVU449
 1953 0018 0128     		cmp	r0, #1
 1954 001a 08D0     		beq	.L172
 959:Drivers/STM32G4xx_HAL_Driver/Src/stm32g4xx_hal_pwr_ex.c ****   {
 960:Drivers/STM32G4xx_HAL_Driver/Src/stm32g4xx_hal_pwr_ex.c ****     /* Request Wait For Interrupt */
 961:Drivers/STM32G4xx_HAL_Driver/Src/stm32g4xx_hal_pwr_ex.c ****     __WFI();
 962:Drivers/STM32G4xx_HAL_Driver/Src/stm32g4xx_hal_pwr_ex.c ****   }
 963:Drivers/STM32G4xx_HAL_Driver/Src/stm32g4xx_hal_pwr_ex.c ****   else
 964:Drivers/STM32G4xx_HAL_Driver/Src/stm32g4xx_hal_pwr_ex.c ****   {
 965:Drivers/STM32G4xx_HAL_Driver/Src/stm32g4xx_hal_pwr_ex.c ****     /* Request Wait For Event */
 966:Drivers/STM32G4xx_HAL_Driver/Src/stm32g4xx_hal_pwr_ex.c ****     __SEV();
 1955              		.loc 1 966 5 is_stmt 1 view .LVU450
 1956              		.syntax unified
 1957              	@ 966 "Drivers/STM32G4xx_HAL_Driver/Src/stm32g4xx_hal_pwr_ex.c" 1
 1958 001c 40BF     		sev
 1959              	@ 0 "" 2
 967:Drivers/STM32G4xx_HAL_Driver/Src/stm32g4xx_hal_pwr_ex.c ****     __WFE();
 1960              		.loc 1 967 5 view .LVU451
 1961              	@ 967 "Drivers/STM32G4xx_HAL_Driver/Src/stm32g4xx_hal_pwr_ex.c" 1
 1962 001e 20BF     		wfe
ARM GAS  /tmp/cc2lDYQJ.s 			page 54


 1963              	@ 0 "" 2
 968:Drivers/STM32G4xx_HAL_Driver/Src/stm32g4xx_hal_pwr_ex.c ****     __WFE();
 1964              		.loc 1 968 5 view .LVU452
 1965              	@ 968 "Drivers/STM32G4xx_HAL_Driver/Src/stm32g4xx_hal_pwr_ex.c" 1
 1966 0020 20BF     		wfe
 1967              	@ 0 "" 2
 1968              		.thumb
 1969              		.syntax unified
 1970              	.L171:
 969:Drivers/STM32G4xx_HAL_Driver/Src/stm32g4xx_hal_pwr_ex.c ****   }
 970:Drivers/STM32G4xx_HAL_Driver/Src/stm32g4xx_hal_pwr_ex.c **** 
 971:Drivers/STM32G4xx_HAL_Driver/Src/stm32g4xx_hal_pwr_ex.c ****   /* Reset SLEEPDEEP bit of Cortex System Control Register */
 972:Drivers/STM32G4xx_HAL_Driver/Src/stm32g4xx_hal_pwr_ex.c ****   CLEAR_BIT(SCB->SCR, ((uint32_t)SCB_SCR_SLEEPDEEP_Msk));
 1971              		.loc 1 972 3 view .LVU453
 1972 0022 054A     		ldr	r2, .L173+4
 1973 0024 1369     		ldr	r3, [r2, #16]
 1974 0026 23F00403 		bic	r3, r3, #4
 1975 002a 1361     		str	r3, [r2, #16]
 973:Drivers/STM32G4xx_HAL_Driver/Src/stm32g4xx_hal_pwr_ex.c **** }
 1976              		.loc 1 973 1 is_stmt 0 view .LVU454
 1977 002c 7047     		bx	lr
 1978              	.L172:
 961:Drivers/STM32G4xx_HAL_Driver/Src/stm32g4xx_hal_pwr_ex.c ****   }
 1979              		.loc 1 961 5 is_stmt 1 view .LVU455
 1980              		.syntax unified
 1981              	@ 961 "Drivers/STM32G4xx_HAL_Driver/Src/stm32g4xx_hal_pwr_ex.c" 1
 1982 002e 30BF     		wfi
 1983              	@ 0 "" 2
 1984              		.thumb
 1985              		.syntax unified
 1986 0030 F7E7     		b	.L171
 1987              	.L174:
 1988 0032 00BF     		.align	2
 1989              	.L173:
 1990 0034 00700040 		.word	1073770496
 1991 0038 00ED00E0 		.word	-536810240
 1992              		.cfi_endproc
 1993              	.LFE355:
 1995              		.section	.text.HAL_PWREx_EnterSHUTDOWNMode,"ax",%progbits
 1996              		.align	1
 1997              		.global	HAL_PWREx_EnterSHUTDOWNMode
 1998              		.syntax unified
 1999              		.thumb
 2000              		.thumb_func
 2002              	HAL_PWREx_EnterSHUTDOWNMode:
 2003              	.LFB356:
 974:Drivers/STM32G4xx_HAL_Driver/Src/stm32g4xx_hal_pwr_ex.c **** 
 975:Drivers/STM32G4xx_HAL_Driver/Src/stm32g4xx_hal_pwr_ex.c **** 
 976:Drivers/STM32G4xx_HAL_Driver/Src/stm32g4xx_hal_pwr_ex.c **** 
 977:Drivers/STM32G4xx_HAL_Driver/Src/stm32g4xx_hal_pwr_ex.c **** 
 978:Drivers/STM32G4xx_HAL_Driver/Src/stm32g4xx_hal_pwr_ex.c **** /**
 979:Drivers/STM32G4xx_HAL_Driver/Src/stm32g4xx_hal_pwr_ex.c ****   * @brief Enter Shutdown mode.
 980:Drivers/STM32G4xx_HAL_Driver/Src/stm32g4xx_hal_pwr_ex.c ****   * @note  In Shutdown mode, the PLL, the HSI, the LSI and the HSE oscillators are switched
 981:Drivers/STM32G4xx_HAL_Driver/Src/stm32g4xx_hal_pwr_ex.c ****   *        off. The voltage regulator is disabled and Vcore domain is powered off.
 982:Drivers/STM32G4xx_HAL_Driver/Src/stm32g4xx_hal_pwr_ex.c ****   *        SRAM1, SRAM2 and registers contents are lost except for registers in the Backup domain.
 983:Drivers/STM32G4xx_HAL_Driver/Src/stm32g4xx_hal_pwr_ex.c ****   *        The BOR is not available.
 984:Drivers/STM32G4xx_HAL_Driver/Src/stm32g4xx_hal_pwr_ex.c ****   * @note  The I/Os can be configured either with a pull-up or pull-down or can be kept in analog s
ARM GAS  /tmp/cc2lDYQJ.s 			page 55


 985:Drivers/STM32G4xx_HAL_Driver/Src/stm32g4xx_hal_pwr_ex.c ****   * @retval None
 986:Drivers/STM32G4xx_HAL_Driver/Src/stm32g4xx_hal_pwr_ex.c ****   */
 987:Drivers/STM32G4xx_HAL_Driver/Src/stm32g4xx_hal_pwr_ex.c **** void HAL_PWREx_EnterSHUTDOWNMode(void)
 988:Drivers/STM32G4xx_HAL_Driver/Src/stm32g4xx_hal_pwr_ex.c **** {
 2004              		.loc 1 988 1 view -0
 2005              		.cfi_startproc
 2006              		@ args = 0, pretend = 0, frame = 0
 2007              		@ frame_needed = 0, uses_anonymous_args = 0
 2008              		@ link register save eliminated.
 989:Drivers/STM32G4xx_HAL_Driver/Src/stm32g4xx_hal_pwr_ex.c **** 
 990:Drivers/STM32G4xx_HAL_Driver/Src/stm32g4xx_hal_pwr_ex.c ****   /* Set Shutdown mode */
 991:Drivers/STM32G4xx_HAL_Driver/Src/stm32g4xx_hal_pwr_ex.c ****   MODIFY_REG(PWR->CR1, PWR_CR1_LPMS, PWR_CR1_LPMS_SHUTDOWN);
 2009              		.loc 1 991 3 view .LVU457
 2010 0000 064A     		ldr	r2, .L176
 2011 0002 1368     		ldr	r3, [r2]
 2012 0004 23F00703 		bic	r3, r3, #7
 2013 0008 43F00403 		orr	r3, r3, #4
 2014 000c 1360     		str	r3, [r2]
 992:Drivers/STM32G4xx_HAL_Driver/Src/stm32g4xx_hal_pwr_ex.c **** 
 993:Drivers/STM32G4xx_HAL_Driver/Src/stm32g4xx_hal_pwr_ex.c ****   /* Set SLEEPDEEP bit of Cortex System Control Register */
 994:Drivers/STM32G4xx_HAL_Driver/Src/stm32g4xx_hal_pwr_ex.c ****   SET_BIT(SCB->SCR, ((uint32_t)SCB_SCR_SLEEPDEEP_Msk));
 2015              		.loc 1 994 3 view .LVU458
 2016 000e 044A     		ldr	r2, .L176+4
 2017 0010 1369     		ldr	r3, [r2, #16]
 2018 0012 43F00403 		orr	r3, r3, #4
 2019 0016 1361     		str	r3, [r2, #16]
 995:Drivers/STM32G4xx_HAL_Driver/Src/stm32g4xx_hal_pwr_ex.c **** 
 996:Drivers/STM32G4xx_HAL_Driver/Src/stm32g4xx_hal_pwr_ex.c **** /* This option is used to ensure that store operations are completed */
 997:Drivers/STM32G4xx_HAL_Driver/Src/stm32g4xx_hal_pwr_ex.c **** #if defined ( __CC_ARM)
 998:Drivers/STM32G4xx_HAL_Driver/Src/stm32g4xx_hal_pwr_ex.c ****   __force_stores();
 999:Drivers/STM32G4xx_HAL_Driver/Src/stm32g4xx_hal_pwr_ex.c **** #endif
1000:Drivers/STM32G4xx_HAL_Driver/Src/stm32g4xx_hal_pwr_ex.c ****   /* Request Wait For Interrupt */
1001:Drivers/STM32G4xx_HAL_Driver/Src/stm32g4xx_hal_pwr_ex.c ****   __WFI();
 2020              		.loc 1 1001 3 view .LVU459
 2021              		.syntax unified
 2022              	@ 1001 "Drivers/STM32G4xx_HAL_Driver/Src/stm32g4xx_hal_pwr_ex.c" 1
 2023 0018 30BF     		wfi
 2024              	@ 0 "" 2
1002:Drivers/STM32G4xx_HAL_Driver/Src/stm32g4xx_hal_pwr_ex.c **** }
 2025              		.loc 1 1002 1 is_stmt 0 view .LVU460
 2026              		.thumb
 2027              		.syntax unified
 2028 001a 7047     		bx	lr
 2029              	.L177:
 2030              		.align	2
 2031              	.L176:
 2032 001c 00700040 		.word	1073770496
 2033 0020 00ED00E0 		.word	-536810240
 2034              		.cfi_endproc
 2035              	.LFE356:
 2037              		.section	.text.HAL_PWREx_PVM1Callback,"ax",%progbits
 2038              		.align	1
 2039              		.weak	HAL_PWREx_PVM1Callback
 2040              		.syntax unified
 2041              		.thumb
 2042              		.thumb_func
 2044              	HAL_PWREx_PVM1Callback:
ARM GAS  /tmp/cc2lDYQJ.s 			page 56


 2045              	.LFB358:
1003:Drivers/STM32G4xx_HAL_Driver/Src/stm32g4xx_hal_pwr_ex.c **** 
1004:Drivers/STM32G4xx_HAL_Driver/Src/stm32g4xx_hal_pwr_ex.c **** 
1005:Drivers/STM32G4xx_HAL_Driver/Src/stm32g4xx_hal_pwr_ex.c **** 
1006:Drivers/STM32G4xx_HAL_Driver/Src/stm32g4xx_hal_pwr_ex.c **** 
1007:Drivers/STM32G4xx_HAL_Driver/Src/stm32g4xx_hal_pwr_ex.c **** /**
1008:Drivers/STM32G4xx_HAL_Driver/Src/stm32g4xx_hal_pwr_ex.c ****   * @brief This function handles the PWR PVD/PVMx interrupt request.
1009:Drivers/STM32G4xx_HAL_Driver/Src/stm32g4xx_hal_pwr_ex.c ****   * @note This API should be called under the PVD_PVM_IRQHandler().
1010:Drivers/STM32G4xx_HAL_Driver/Src/stm32g4xx_hal_pwr_ex.c ****   * @retval None
1011:Drivers/STM32G4xx_HAL_Driver/Src/stm32g4xx_hal_pwr_ex.c ****   */
1012:Drivers/STM32G4xx_HAL_Driver/Src/stm32g4xx_hal_pwr_ex.c **** void HAL_PWREx_PVD_PVM_IRQHandler(void)
1013:Drivers/STM32G4xx_HAL_Driver/Src/stm32g4xx_hal_pwr_ex.c **** {
1014:Drivers/STM32G4xx_HAL_Driver/Src/stm32g4xx_hal_pwr_ex.c ****   /* Check PWR exti flag */
1015:Drivers/STM32G4xx_HAL_Driver/Src/stm32g4xx_hal_pwr_ex.c ****   if(__HAL_PWR_PVD_EXTI_GET_FLAG() != 0U)
1016:Drivers/STM32G4xx_HAL_Driver/Src/stm32g4xx_hal_pwr_ex.c ****   {
1017:Drivers/STM32G4xx_HAL_Driver/Src/stm32g4xx_hal_pwr_ex.c ****     /* PWR PVD interrupt user callback */
1018:Drivers/STM32G4xx_HAL_Driver/Src/stm32g4xx_hal_pwr_ex.c ****     HAL_PWR_PVDCallback();
1019:Drivers/STM32G4xx_HAL_Driver/Src/stm32g4xx_hal_pwr_ex.c **** 
1020:Drivers/STM32G4xx_HAL_Driver/Src/stm32g4xx_hal_pwr_ex.c ****     /* Clear PVD exti pending bit */
1021:Drivers/STM32G4xx_HAL_Driver/Src/stm32g4xx_hal_pwr_ex.c ****     __HAL_PWR_PVD_EXTI_CLEAR_FLAG();
1022:Drivers/STM32G4xx_HAL_Driver/Src/stm32g4xx_hal_pwr_ex.c ****   }
1023:Drivers/STM32G4xx_HAL_Driver/Src/stm32g4xx_hal_pwr_ex.c ****   /* Next, successively check PVMx exti flags */
1024:Drivers/STM32G4xx_HAL_Driver/Src/stm32g4xx_hal_pwr_ex.c **** #if defined(PWR_CR2_PVME1)
1025:Drivers/STM32G4xx_HAL_Driver/Src/stm32g4xx_hal_pwr_ex.c ****   if(__HAL_PWR_PVM1_EXTI_GET_FLAG() != 0U)
1026:Drivers/STM32G4xx_HAL_Driver/Src/stm32g4xx_hal_pwr_ex.c ****   {
1027:Drivers/STM32G4xx_HAL_Driver/Src/stm32g4xx_hal_pwr_ex.c ****     /* PWR PVM1 interrupt user callback */
1028:Drivers/STM32G4xx_HAL_Driver/Src/stm32g4xx_hal_pwr_ex.c ****     HAL_PWREx_PVM1Callback();
1029:Drivers/STM32G4xx_HAL_Driver/Src/stm32g4xx_hal_pwr_ex.c **** 
1030:Drivers/STM32G4xx_HAL_Driver/Src/stm32g4xx_hal_pwr_ex.c ****     /* Clear PVM1 exti pending bit */
1031:Drivers/STM32G4xx_HAL_Driver/Src/stm32g4xx_hal_pwr_ex.c ****     __HAL_PWR_PVM1_EXTI_CLEAR_FLAG();
1032:Drivers/STM32G4xx_HAL_Driver/Src/stm32g4xx_hal_pwr_ex.c ****   }
1033:Drivers/STM32G4xx_HAL_Driver/Src/stm32g4xx_hal_pwr_ex.c **** #endif /* PWR_CR2_PVME1 */
1034:Drivers/STM32G4xx_HAL_Driver/Src/stm32g4xx_hal_pwr_ex.c **** #if defined(PWR_CR2_PVME2)
1035:Drivers/STM32G4xx_HAL_Driver/Src/stm32g4xx_hal_pwr_ex.c ****   if(__HAL_PWR_PVM2_EXTI_GET_FLAG() != 0U)
1036:Drivers/STM32G4xx_HAL_Driver/Src/stm32g4xx_hal_pwr_ex.c ****   {
1037:Drivers/STM32G4xx_HAL_Driver/Src/stm32g4xx_hal_pwr_ex.c ****     /* PWR PVM2 interrupt user callback */
1038:Drivers/STM32G4xx_HAL_Driver/Src/stm32g4xx_hal_pwr_ex.c ****     HAL_PWREx_PVM2Callback();
1039:Drivers/STM32G4xx_HAL_Driver/Src/stm32g4xx_hal_pwr_ex.c **** 
1040:Drivers/STM32G4xx_HAL_Driver/Src/stm32g4xx_hal_pwr_ex.c ****     /* Clear PVM2 exti pending bit */
1041:Drivers/STM32G4xx_HAL_Driver/Src/stm32g4xx_hal_pwr_ex.c ****     __HAL_PWR_PVM2_EXTI_CLEAR_FLAG();
1042:Drivers/STM32G4xx_HAL_Driver/Src/stm32g4xx_hal_pwr_ex.c ****   }
1043:Drivers/STM32G4xx_HAL_Driver/Src/stm32g4xx_hal_pwr_ex.c **** #endif /* PWR_CR2_PVME2 */
1044:Drivers/STM32G4xx_HAL_Driver/Src/stm32g4xx_hal_pwr_ex.c ****   if(__HAL_PWR_PVM3_EXTI_GET_FLAG() != 0U)
1045:Drivers/STM32G4xx_HAL_Driver/Src/stm32g4xx_hal_pwr_ex.c ****   {
1046:Drivers/STM32G4xx_HAL_Driver/Src/stm32g4xx_hal_pwr_ex.c ****     /* PWR PVM3 interrupt user callback */
1047:Drivers/STM32G4xx_HAL_Driver/Src/stm32g4xx_hal_pwr_ex.c ****     HAL_PWREx_PVM3Callback();
1048:Drivers/STM32G4xx_HAL_Driver/Src/stm32g4xx_hal_pwr_ex.c **** 
1049:Drivers/STM32G4xx_HAL_Driver/Src/stm32g4xx_hal_pwr_ex.c ****     /* Clear PVM3 exti pending bit */
1050:Drivers/STM32G4xx_HAL_Driver/Src/stm32g4xx_hal_pwr_ex.c ****     __HAL_PWR_PVM3_EXTI_CLEAR_FLAG();
1051:Drivers/STM32G4xx_HAL_Driver/Src/stm32g4xx_hal_pwr_ex.c ****   }
1052:Drivers/STM32G4xx_HAL_Driver/Src/stm32g4xx_hal_pwr_ex.c ****   if(__HAL_PWR_PVM4_EXTI_GET_FLAG() != 0U)
1053:Drivers/STM32G4xx_HAL_Driver/Src/stm32g4xx_hal_pwr_ex.c ****   {
1054:Drivers/STM32G4xx_HAL_Driver/Src/stm32g4xx_hal_pwr_ex.c ****     /* PWR PVM4 interrupt user callback */
1055:Drivers/STM32G4xx_HAL_Driver/Src/stm32g4xx_hal_pwr_ex.c ****     HAL_PWREx_PVM4Callback();
1056:Drivers/STM32G4xx_HAL_Driver/Src/stm32g4xx_hal_pwr_ex.c **** 
1057:Drivers/STM32G4xx_HAL_Driver/Src/stm32g4xx_hal_pwr_ex.c ****     /* Clear PVM4 exti pending bit */
1058:Drivers/STM32G4xx_HAL_Driver/Src/stm32g4xx_hal_pwr_ex.c ****     __HAL_PWR_PVM4_EXTI_CLEAR_FLAG();
ARM GAS  /tmp/cc2lDYQJ.s 			page 57


1059:Drivers/STM32G4xx_HAL_Driver/Src/stm32g4xx_hal_pwr_ex.c ****   }
1060:Drivers/STM32G4xx_HAL_Driver/Src/stm32g4xx_hal_pwr_ex.c **** }
1061:Drivers/STM32G4xx_HAL_Driver/Src/stm32g4xx_hal_pwr_ex.c **** 
1062:Drivers/STM32G4xx_HAL_Driver/Src/stm32g4xx_hal_pwr_ex.c **** 
1063:Drivers/STM32G4xx_HAL_Driver/Src/stm32g4xx_hal_pwr_ex.c **** #if defined(PWR_CR2_PVME1)
1064:Drivers/STM32G4xx_HAL_Driver/Src/stm32g4xx_hal_pwr_ex.c **** /**
1065:Drivers/STM32G4xx_HAL_Driver/Src/stm32g4xx_hal_pwr_ex.c ****   * @brief PWR PVM1 interrupt callback
1066:Drivers/STM32G4xx_HAL_Driver/Src/stm32g4xx_hal_pwr_ex.c ****   * @retval None
1067:Drivers/STM32G4xx_HAL_Driver/Src/stm32g4xx_hal_pwr_ex.c ****   */
1068:Drivers/STM32G4xx_HAL_Driver/Src/stm32g4xx_hal_pwr_ex.c **** __weak void HAL_PWREx_PVM1Callback(void)
1069:Drivers/STM32G4xx_HAL_Driver/Src/stm32g4xx_hal_pwr_ex.c **** {
 2046              		.loc 1 1069 1 is_stmt 1 view -0
 2047              		.cfi_startproc
 2048              		@ args = 0, pretend = 0, frame = 0
 2049              		@ frame_needed = 0, uses_anonymous_args = 0
 2050              		@ link register save eliminated.
1070:Drivers/STM32G4xx_HAL_Driver/Src/stm32g4xx_hal_pwr_ex.c ****   /* NOTE : This function should not be modified; when the callback is needed,
1071:Drivers/STM32G4xx_HAL_Driver/Src/stm32g4xx_hal_pwr_ex.c ****             HAL_PWREx_PVM1Callback() API can be implemented in the user file
1072:Drivers/STM32G4xx_HAL_Driver/Src/stm32g4xx_hal_pwr_ex.c ****    */
1073:Drivers/STM32G4xx_HAL_Driver/Src/stm32g4xx_hal_pwr_ex.c **** }
 2051              		.loc 1 1073 1 view .LVU462
 2052 0000 7047     		bx	lr
 2053              		.cfi_endproc
 2054              	.LFE358:
 2056              		.section	.text.HAL_PWREx_PVM2Callback,"ax",%progbits
 2057              		.align	1
 2058              		.weak	HAL_PWREx_PVM2Callback
 2059              		.syntax unified
 2060              		.thumb
 2061              		.thumb_func
 2063              	HAL_PWREx_PVM2Callback:
 2064              	.LFB359:
1074:Drivers/STM32G4xx_HAL_Driver/Src/stm32g4xx_hal_pwr_ex.c **** #endif /* PWR_CR2_PVME1 */
1075:Drivers/STM32G4xx_HAL_Driver/Src/stm32g4xx_hal_pwr_ex.c **** 
1076:Drivers/STM32G4xx_HAL_Driver/Src/stm32g4xx_hal_pwr_ex.c **** #if defined(PWR_CR2_PVME2)
1077:Drivers/STM32G4xx_HAL_Driver/Src/stm32g4xx_hal_pwr_ex.c **** /**
1078:Drivers/STM32G4xx_HAL_Driver/Src/stm32g4xx_hal_pwr_ex.c ****   * @brief PWR PVM2 interrupt callback
1079:Drivers/STM32G4xx_HAL_Driver/Src/stm32g4xx_hal_pwr_ex.c ****   * @retval None
1080:Drivers/STM32G4xx_HAL_Driver/Src/stm32g4xx_hal_pwr_ex.c ****   */
1081:Drivers/STM32G4xx_HAL_Driver/Src/stm32g4xx_hal_pwr_ex.c **** __weak void HAL_PWREx_PVM2Callback(void)
1082:Drivers/STM32G4xx_HAL_Driver/Src/stm32g4xx_hal_pwr_ex.c **** {
 2065              		.loc 1 1082 1 view -0
 2066              		.cfi_startproc
 2067              		@ args = 0, pretend = 0, frame = 0
 2068              		@ frame_needed = 0, uses_anonymous_args = 0
 2069              		@ link register save eliminated.
1083:Drivers/STM32G4xx_HAL_Driver/Src/stm32g4xx_hal_pwr_ex.c ****   /* NOTE : This function should not be modified; when the callback is needed,
1084:Drivers/STM32G4xx_HAL_Driver/Src/stm32g4xx_hal_pwr_ex.c ****             HAL_PWREx_PVM2Callback() API can be implemented in the user file
1085:Drivers/STM32G4xx_HAL_Driver/Src/stm32g4xx_hal_pwr_ex.c ****    */
1086:Drivers/STM32G4xx_HAL_Driver/Src/stm32g4xx_hal_pwr_ex.c **** }
 2070              		.loc 1 1086 1 view .LVU464
 2071 0000 7047     		bx	lr
 2072              		.cfi_endproc
 2073              	.LFE359:
 2075              		.section	.text.HAL_PWREx_PVM3Callback,"ax",%progbits
 2076              		.align	1
 2077              		.weak	HAL_PWREx_PVM3Callback
ARM GAS  /tmp/cc2lDYQJ.s 			page 58


 2078              		.syntax unified
 2079              		.thumb
 2080              		.thumb_func
 2082              	HAL_PWREx_PVM3Callback:
 2083              	.LFB360:
1087:Drivers/STM32G4xx_HAL_Driver/Src/stm32g4xx_hal_pwr_ex.c **** #endif /* PWR_CR2_PVME2 */
1088:Drivers/STM32G4xx_HAL_Driver/Src/stm32g4xx_hal_pwr_ex.c **** 
1089:Drivers/STM32G4xx_HAL_Driver/Src/stm32g4xx_hal_pwr_ex.c **** /**
1090:Drivers/STM32G4xx_HAL_Driver/Src/stm32g4xx_hal_pwr_ex.c ****   * @brief PWR PVM3 interrupt callback
1091:Drivers/STM32G4xx_HAL_Driver/Src/stm32g4xx_hal_pwr_ex.c ****   * @retval None
1092:Drivers/STM32G4xx_HAL_Driver/Src/stm32g4xx_hal_pwr_ex.c ****   */
1093:Drivers/STM32G4xx_HAL_Driver/Src/stm32g4xx_hal_pwr_ex.c **** __weak void HAL_PWREx_PVM3Callback(void)
1094:Drivers/STM32G4xx_HAL_Driver/Src/stm32g4xx_hal_pwr_ex.c **** {
 2084              		.loc 1 1094 1 view -0
 2085              		.cfi_startproc
 2086              		@ args = 0, pretend = 0, frame = 0
 2087              		@ frame_needed = 0, uses_anonymous_args = 0
 2088              		@ link register save eliminated.
1095:Drivers/STM32G4xx_HAL_Driver/Src/stm32g4xx_hal_pwr_ex.c ****   /* NOTE : This function should not be modified; when the callback is needed,
1096:Drivers/STM32G4xx_HAL_Driver/Src/stm32g4xx_hal_pwr_ex.c ****             HAL_PWREx_PVM3Callback() API can be implemented in the user file
1097:Drivers/STM32G4xx_HAL_Driver/Src/stm32g4xx_hal_pwr_ex.c ****    */
1098:Drivers/STM32G4xx_HAL_Driver/Src/stm32g4xx_hal_pwr_ex.c **** }
 2089              		.loc 1 1098 1 view .LVU466
 2090 0000 7047     		bx	lr
 2091              		.cfi_endproc
 2092              	.LFE360:
 2094              		.section	.text.HAL_PWREx_PVM4Callback,"ax",%progbits
 2095              		.align	1
 2096              		.weak	HAL_PWREx_PVM4Callback
 2097              		.syntax unified
 2098              		.thumb
 2099              		.thumb_func
 2101              	HAL_PWREx_PVM4Callback:
 2102              	.LFB361:
1099:Drivers/STM32G4xx_HAL_Driver/Src/stm32g4xx_hal_pwr_ex.c **** 
1100:Drivers/STM32G4xx_HAL_Driver/Src/stm32g4xx_hal_pwr_ex.c **** /**
1101:Drivers/STM32G4xx_HAL_Driver/Src/stm32g4xx_hal_pwr_ex.c ****   * @brief PWR PVM4 interrupt callback
1102:Drivers/STM32G4xx_HAL_Driver/Src/stm32g4xx_hal_pwr_ex.c ****   * @retval None
1103:Drivers/STM32G4xx_HAL_Driver/Src/stm32g4xx_hal_pwr_ex.c ****   */
1104:Drivers/STM32G4xx_HAL_Driver/Src/stm32g4xx_hal_pwr_ex.c **** __weak void HAL_PWREx_PVM4Callback(void)
1105:Drivers/STM32G4xx_HAL_Driver/Src/stm32g4xx_hal_pwr_ex.c **** {
 2103              		.loc 1 1105 1 view -0
 2104              		.cfi_startproc
 2105              		@ args = 0, pretend = 0, frame = 0
 2106              		@ frame_needed = 0, uses_anonymous_args = 0
 2107              		@ link register save eliminated.
1106:Drivers/STM32G4xx_HAL_Driver/Src/stm32g4xx_hal_pwr_ex.c ****   /* NOTE : This function should not be modified; when the callback is needed,
1107:Drivers/STM32G4xx_HAL_Driver/Src/stm32g4xx_hal_pwr_ex.c ****             HAL_PWREx_PVM4Callback() API can be implemented in the user file
1108:Drivers/STM32G4xx_HAL_Driver/Src/stm32g4xx_hal_pwr_ex.c ****    */
1109:Drivers/STM32G4xx_HAL_Driver/Src/stm32g4xx_hal_pwr_ex.c **** }
 2108              		.loc 1 1109 1 view .LVU468
 2109 0000 7047     		bx	lr
 2110              		.cfi_endproc
 2111              	.LFE361:
 2113              		.section	.text.HAL_PWREx_PVD_PVM_IRQHandler,"ax",%progbits
 2114              		.align	1
 2115              		.global	HAL_PWREx_PVD_PVM_IRQHandler
ARM GAS  /tmp/cc2lDYQJ.s 			page 59


 2116              		.syntax unified
 2117              		.thumb
 2118              		.thumb_func
 2120              	HAL_PWREx_PVD_PVM_IRQHandler:
 2121              	.LFB357:
1013:Drivers/STM32G4xx_HAL_Driver/Src/stm32g4xx_hal_pwr_ex.c ****   /* Check PWR exti flag */
 2122              		.loc 1 1013 1 view -0
 2123              		.cfi_startproc
 2124              		@ args = 0, pretend = 0, frame = 0
 2125              		@ frame_needed = 0, uses_anonymous_args = 0
 2126 0000 08B5     		push	{r3, lr}
 2127              	.LCFI0:
 2128              		.cfi_def_cfa_offset 8
 2129              		.cfi_offset 3, -8
 2130              		.cfi_offset 14, -4
1015:Drivers/STM32G4xx_HAL_Driver/Src/stm32g4xx_hal_pwr_ex.c ****   {
 2131              		.loc 1 1015 3 view .LVU470
1015:Drivers/STM32G4xx_HAL_Driver/Src/stm32g4xx_hal_pwr_ex.c ****   {
 2132              		.loc 1 1015 6 is_stmt 0 view .LVU471
 2133 0002 1C4B     		ldr	r3, .L194
 2134 0004 5B69     		ldr	r3, [r3, #20]
1015:Drivers/STM32G4xx_HAL_Driver/Src/stm32g4xx_hal_pwr_ex.c ****   {
 2135              		.loc 1 1015 5 view .LVU472
 2136 0006 13F4803F 		tst	r3, #65536
 2137 000a 14D1     		bne	.L189
 2138              	.L183:
1025:Drivers/STM32G4xx_HAL_Driver/Src/stm32g4xx_hal_pwr_ex.c ****   {
 2139              		.loc 1 1025 3 is_stmt 1 view .LVU473
1025:Drivers/STM32G4xx_HAL_Driver/Src/stm32g4xx_hal_pwr_ex.c ****   {
 2140              		.loc 1 1025 6 is_stmt 0 view .LVU474
 2141 000c 194B     		ldr	r3, .L194
 2142 000e 5B6B     		ldr	r3, [r3, #52]
1025:Drivers/STM32G4xx_HAL_Driver/Src/stm32g4xx_hal_pwr_ex.c ****   {
 2143              		.loc 1 1025 5 view .LVU475
 2144 0010 13F0080F 		tst	r3, #8
 2145 0014 16D1     		bne	.L190
 2146              	.L184:
1035:Drivers/STM32G4xx_HAL_Driver/Src/stm32g4xx_hal_pwr_ex.c ****   {
 2147              		.loc 1 1035 3 is_stmt 1 view .LVU476
1035:Drivers/STM32G4xx_HAL_Driver/Src/stm32g4xx_hal_pwr_ex.c ****   {
 2148              		.loc 1 1035 6 is_stmt 0 view .LVU477
 2149 0016 174B     		ldr	r3, .L194
 2150 0018 5B6B     		ldr	r3, [r3, #52]
1035:Drivers/STM32G4xx_HAL_Driver/Src/stm32g4xx_hal_pwr_ex.c ****   {
 2151              		.loc 1 1035 5 view .LVU478
 2152 001a 13F0100F 		tst	r3, #16
 2153 001e 17D1     		bne	.L191
 2154              	.L185:
1044:Drivers/STM32G4xx_HAL_Driver/Src/stm32g4xx_hal_pwr_ex.c ****   {
 2155              		.loc 1 1044 3 is_stmt 1 view .LVU479
1044:Drivers/STM32G4xx_HAL_Driver/Src/stm32g4xx_hal_pwr_ex.c ****   {
 2156              		.loc 1 1044 6 is_stmt 0 view .LVU480
 2157 0020 144B     		ldr	r3, .L194
 2158 0022 5B6B     		ldr	r3, [r3, #52]
1044:Drivers/STM32G4xx_HAL_Driver/Src/stm32g4xx_hal_pwr_ex.c ****   {
 2159              		.loc 1 1044 5 view .LVU481
 2160 0024 13F0200F 		tst	r3, #32
ARM GAS  /tmp/cc2lDYQJ.s 			page 60


 2161 0028 18D1     		bne	.L192
 2162              	.L186:
1052:Drivers/STM32G4xx_HAL_Driver/Src/stm32g4xx_hal_pwr_ex.c ****   {
 2163              		.loc 1 1052 3 is_stmt 1 view .LVU482
1052:Drivers/STM32G4xx_HAL_Driver/Src/stm32g4xx_hal_pwr_ex.c ****   {
 2164              		.loc 1 1052 6 is_stmt 0 view .LVU483
 2165 002a 124B     		ldr	r3, .L194
 2166 002c 5B6B     		ldr	r3, [r3, #52]
1052:Drivers/STM32G4xx_HAL_Driver/Src/stm32g4xx_hal_pwr_ex.c ****   {
 2167              		.loc 1 1052 5 view .LVU484
 2168 002e 13F0400F 		tst	r3, #64
 2169 0032 19D1     		bne	.L193
 2170              	.L182:
1060:Drivers/STM32G4xx_HAL_Driver/Src/stm32g4xx_hal_pwr_ex.c **** 
 2171              		.loc 1 1060 1 view .LVU485
 2172 0034 08BD     		pop	{r3, pc}
 2173              	.L189:
1018:Drivers/STM32G4xx_HAL_Driver/Src/stm32g4xx_hal_pwr_ex.c **** 
 2174              		.loc 1 1018 5 is_stmt 1 view .LVU486
 2175 0036 FFF7FEFF 		bl	HAL_PWR_PVDCallback
 2176              	.LVL123:
1021:Drivers/STM32G4xx_HAL_Driver/Src/stm32g4xx_hal_pwr_ex.c ****   }
 2177              		.loc 1 1021 5 view .LVU487
 2178 003a 0E4B     		ldr	r3, .L194
 2179 003c 4FF48032 		mov	r2, #65536
 2180 0040 5A61     		str	r2, [r3, #20]
 2181 0042 E3E7     		b	.L183
 2182              	.L190:
1028:Drivers/STM32G4xx_HAL_Driver/Src/stm32g4xx_hal_pwr_ex.c **** 
 2183              		.loc 1 1028 5 view .LVU488
 2184 0044 FFF7FEFF 		bl	HAL_PWREx_PVM1Callback
 2185              	.LVL124:
1031:Drivers/STM32G4xx_HAL_Driver/Src/stm32g4xx_hal_pwr_ex.c ****   }
 2186              		.loc 1 1031 5 view .LVU489
 2187 0048 0A4B     		ldr	r3, .L194
 2188 004a 0822     		movs	r2, #8
 2189 004c 5A63     		str	r2, [r3, #52]
 2190 004e E2E7     		b	.L184
 2191              	.L191:
1038:Drivers/STM32G4xx_HAL_Driver/Src/stm32g4xx_hal_pwr_ex.c **** 
 2192              		.loc 1 1038 5 view .LVU490
 2193 0050 FFF7FEFF 		bl	HAL_PWREx_PVM2Callback
 2194              	.LVL125:
1041:Drivers/STM32G4xx_HAL_Driver/Src/stm32g4xx_hal_pwr_ex.c ****   }
 2195              		.loc 1 1041 5 view .LVU491
 2196 0054 074B     		ldr	r3, .L194
 2197 0056 1022     		movs	r2, #16
 2198 0058 5A63     		str	r2, [r3, #52]
 2199 005a E1E7     		b	.L185
 2200              	.L192:
1047:Drivers/STM32G4xx_HAL_Driver/Src/stm32g4xx_hal_pwr_ex.c **** 
 2201              		.loc 1 1047 5 view .LVU492
 2202 005c FFF7FEFF 		bl	HAL_PWREx_PVM3Callback
 2203              	.LVL126:
1050:Drivers/STM32G4xx_HAL_Driver/Src/stm32g4xx_hal_pwr_ex.c ****   }
 2204              		.loc 1 1050 5 view .LVU493
 2205 0060 044B     		ldr	r3, .L194
ARM GAS  /tmp/cc2lDYQJ.s 			page 61


 2206 0062 2022     		movs	r2, #32
 2207 0064 5A63     		str	r2, [r3, #52]
 2208 0066 E0E7     		b	.L186
 2209              	.L193:
1055:Drivers/STM32G4xx_HAL_Driver/Src/stm32g4xx_hal_pwr_ex.c **** 
 2210              		.loc 1 1055 5 view .LVU494
 2211 0068 FFF7FEFF 		bl	HAL_PWREx_PVM4Callback
 2212              	.LVL127:
1058:Drivers/STM32G4xx_HAL_Driver/Src/stm32g4xx_hal_pwr_ex.c ****   }
 2213              		.loc 1 1058 5 view .LVU495
 2214 006c 014B     		ldr	r3, .L194
 2215 006e 4022     		movs	r2, #64
 2216 0070 5A63     		str	r2, [r3, #52]
1060:Drivers/STM32G4xx_HAL_Driver/Src/stm32g4xx_hal_pwr_ex.c **** 
 2217              		.loc 1 1060 1 is_stmt 0 view .LVU496
 2218 0072 DFE7     		b	.L182
 2219              	.L195:
 2220              		.align	2
 2221              	.L194:
 2222 0074 00040140 		.word	1073808384
 2223              		.cfi_endproc
 2224              	.LFE357:
 2226              		.section	.text.HAL_PWREx_EnableUCPDStandbyMode,"ax",%progbits
 2227              		.align	1
 2228              		.global	HAL_PWREx_EnableUCPDStandbyMode
 2229              		.syntax unified
 2230              		.thumb
 2231              		.thumb_func
 2233              	HAL_PWREx_EnableUCPDStandbyMode:
 2234              	.LFB362:
1110:Drivers/STM32G4xx_HAL_Driver/Src/stm32g4xx_hal_pwr_ex.c **** 
1111:Drivers/STM32G4xx_HAL_Driver/Src/stm32g4xx_hal_pwr_ex.c **** #if defined(PWR_CR3_UCPD_STDBY)
1112:Drivers/STM32G4xx_HAL_Driver/Src/stm32g4xx_hal_pwr_ex.c **** /**
1113:Drivers/STM32G4xx_HAL_Driver/Src/stm32g4xx_hal_pwr_ex.c ****   * @brief Enable UCPD configuration memorization in Standby.
1114:Drivers/STM32G4xx_HAL_Driver/Src/stm32g4xx_hal_pwr_ex.c ****   * @retval None
1115:Drivers/STM32G4xx_HAL_Driver/Src/stm32g4xx_hal_pwr_ex.c ****   */
1116:Drivers/STM32G4xx_HAL_Driver/Src/stm32g4xx_hal_pwr_ex.c **** void HAL_PWREx_EnableUCPDStandbyMode(void)
1117:Drivers/STM32G4xx_HAL_Driver/Src/stm32g4xx_hal_pwr_ex.c **** {
 2235              		.loc 1 1117 1 is_stmt 1 view -0
 2236              		.cfi_startproc
 2237              		@ args = 0, pretend = 0, frame = 0
 2238              		@ frame_needed = 0, uses_anonymous_args = 0
 2239              		@ link register save eliminated.
1118:Drivers/STM32G4xx_HAL_Driver/Src/stm32g4xx_hal_pwr_ex.c ****   /* Memorize UCPD configuration when entering standby mode */
1119:Drivers/STM32G4xx_HAL_Driver/Src/stm32g4xx_hal_pwr_ex.c ****   SET_BIT(PWR->CR3, PWR_CR3_UCPD_STDBY);
 2240              		.loc 1 1119 3 view .LVU498
 2241 0000 024A     		ldr	r2, .L197
 2242 0002 9368     		ldr	r3, [r2, #8]
 2243 0004 43F40053 		orr	r3, r3, #8192
 2244 0008 9360     		str	r3, [r2, #8]
1120:Drivers/STM32G4xx_HAL_Driver/Src/stm32g4xx_hal_pwr_ex.c **** }
 2245              		.loc 1 1120 1 is_stmt 0 view .LVU499
 2246 000a 7047     		bx	lr
 2247              	.L198:
 2248              		.align	2
 2249              	.L197:
 2250 000c 00700040 		.word	1073770496
ARM GAS  /tmp/cc2lDYQJ.s 			page 62


 2251              		.cfi_endproc
 2252              	.LFE362:
 2254              		.section	.text.HAL_PWREx_DisableUCPDStandbyMode,"ax",%progbits
 2255              		.align	1
 2256              		.global	HAL_PWREx_DisableUCPDStandbyMode
 2257              		.syntax unified
 2258              		.thumb
 2259              		.thumb_func
 2261              	HAL_PWREx_DisableUCPDStandbyMode:
 2262              	.LFB363:
1121:Drivers/STM32G4xx_HAL_Driver/Src/stm32g4xx_hal_pwr_ex.c **** 
1122:Drivers/STM32G4xx_HAL_Driver/Src/stm32g4xx_hal_pwr_ex.c **** /**
1123:Drivers/STM32G4xx_HAL_Driver/Src/stm32g4xx_hal_pwr_ex.c ****   * @brief Disable UCPD configuration memorization in Standby.
1124:Drivers/STM32G4xx_HAL_Driver/Src/stm32g4xx_hal_pwr_ex.c ****   * @note  This function must be called on exiting the Standby mode and before any UCPD
1125:Drivers/STM32G4xx_HAL_Driver/Src/stm32g4xx_hal_pwr_ex.c ****   *        configuration update.
1126:Drivers/STM32G4xx_HAL_Driver/Src/stm32g4xx_hal_pwr_ex.c ****   * @retval None
1127:Drivers/STM32G4xx_HAL_Driver/Src/stm32g4xx_hal_pwr_ex.c ****   */
1128:Drivers/STM32G4xx_HAL_Driver/Src/stm32g4xx_hal_pwr_ex.c **** void HAL_PWREx_DisableUCPDStandbyMode(void)
1129:Drivers/STM32G4xx_HAL_Driver/Src/stm32g4xx_hal_pwr_ex.c **** {
 2263              		.loc 1 1129 1 is_stmt 1 view -0
 2264              		.cfi_startproc
 2265              		@ args = 0, pretend = 0, frame = 0
 2266              		@ frame_needed = 0, uses_anonymous_args = 0
 2267              		@ link register save eliminated.
1130:Drivers/STM32G4xx_HAL_Driver/Src/stm32g4xx_hal_pwr_ex.c ****   /* Write 0 immediately after Standby exit when using UCPD,
1131:Drivers/STM32G4xx_HAL_Driver/Src/stm32g4xx_hal_pwr_ex.c ****      and before writing any UCPD registers */
1132:Drivers/STM32G4xx_HAL_Driver/Src/stm32g4xx_hal_pwr_ex.c ****   CLEAR_BIT(PWR->CR3, PWR_CR3_UCPD_STDBY);
 2268              		.loc 1 1132 3 view .LVU501
 2269 0000 024A     		ldr	r2, .L200
 2270 0002 9368     		ldr	r3, [r2, #8]
 2271 0004 23F40053 		bic	r3, r3, #8192
 2272 0008 9360     		str	r3, [r2, #8]
1133:Drivers/STM32G4xx_HAL_Driver/Src/stm32g4xx_hal_pwr_ex.c **** }
 2273              		.loc 1 1133 1 is_stmt 0 view .LVU502
 2274 000a 7047     		bx	lr
 2275              	.L201:
 2276              		.align	2
 2277              	.L200:
 2278 000c 00700040 		.word	1073770496
 2279              		.cfi_endproc
 2280              	.LFE363:
 2282              		.section	.text.HAL_PWREx_EnableUCPDDeadBattery,"ax",%progbits
 2283              		.align	1
 2284              		.global	HAL_PWREx_EnableUCPDDeadBattery
 2285              		.syntax unified
 2286              		.thumb
 2287              		.thumb_func
 2289              	HAL_PWREx_EnableUCPDDeadBattery:
 2290              	.LFB364:
1134:Drivers/STM32G4xx_HAL_Driver/Src/stm32g4xx_hal_pwr_ex.c **** #endif /* PWR_CR3_UCPD_STDBY */
1135:Drivers/STM32G4xx_HAL_Driver/Src/stm32g4xx_hal_pwr_ex.c **** 
1136:Drivers/STM32G4xx_HAL_Driver/Src/stm32g4xx_hal_pwr_ex.c **** #if defined(PWR_CR3_UCPD_DBDIS)
1137:Drivers/STM32G4xx_HAL_Driver/Src/stm32g4xx_hal_pwr_ex.c **** /**
1138:Drivers/STM32G4xx_HAL_Driver/Src/stm32g4xx_hal_pwr_ex.c ****   * @brief Enable the USB Type-C dead battery pull-down behavior
1139:Drivers/STM32G4xx_HAL_Driver/Src/stm32g4xx_hal_pwr_ex.c ****   *        on UCPDx_CC1 and UCPDx_CC2 pins
1140:Drivers/STM32G4xx_HAL_Driver/Src/stm32g4xx_hal_pwr_ex.c ****   * @retval None
1141:Drivers/STM32G4xx_HAL_Driver/Src/stm32g4xx_hal_pwr_ex.c ****   */
ARM GAS  /tmp/cc2lDYQJ.s 			page 63


1142:Drivers/STM32G4xx_HAL_Driver/Src/stm32g4xx_hal_pwr_ex.c **** void HAL_PWREx_EnableUCPDDeadBattery(void)
1143:Drivers/STM32G4xx_HAL_Driver/Src/stm32g4xx_hal_pwr_ex.c **** {
 2291              		.loc 1 1143 1 is_stmt 1 view -0
 2292              		.cfi_startproc
 2293              		@ args = 0, pretend = 0, frame = 0
 2294              		@ frame_needed = 0, uses_anonymous_args = 0
 2295              		@ link register save eliminated.
1144:Drivers/STM32G4xx_HAL_Driver/Src/stm32g4xx_hal_pwr_ex.c ****   /* Write 0 to enable the USB Type-C dead battery pull-down behavior */
1145:Drivers/STM32G4xx_HAL_Driver/Src/stm32g4xx_hal_pwr_ex.c ****   CLEAR_BIT(PWR->CR3, PWR_CR3_UCPD_DBDIS);
 2296              		.loc 1 1145 3 view .LVU504
 2297 0000 024A     		ldr	r2, .L203
 2298 0002 9368     		ldr	r3, [r2, #8]
 2299 0004 23F48043 		bic	r3, r3, #16384
 2300 0008 9360     		str	r3, [r2, #8]
1146:Drivers/STM32G4xx_HAL_Driver/Src/stm32g4xx_hal_pwr_ex.c **** }
 2301              		.loc 1 1146 1 is_stmt 0 view .LVU505
 2302 000a 7047     		bx	lr
 2303              	.L204:
 2304              		.align	2
 2305              	.L203:
 2306 000c 00700040 		.word	1073770496
 2307              		.cfi_endproc
 2308              	.LFE364:
 2310              		.section	.text.HAL_PWREx_DisableUCPDDeadBattery,"ax",%progbits
 2311              		.align	1
 2312              		.global	HAL_PWREx_DisableUCPDDeadBattery
 2313              		.syntax unified
 2314              		.thumb
 2315              		.thumb_func
 2317              	HAL_PWREx_DisableUCPDDeadBattery:
 2318              	.LFB365:
1147:Drivers/STM32G4xx_HAL_Driver/Src/stm32g4xx_hal_pwr_ex.c **** 
1148:Drivers/STM32G4xx_HAL_Driver/Src/stm32g4xx_hal_pwr_ex.c **** /**
1149:Drivers/STM32G4xx_HAL_Driver/Src/stm32g4xx_hal_pwr_ex.c ****   * @brief Disable the USB Type-C dead battery pull-down behavior
1150:Drivers/STM32G4xx_HAL_Driver/Src/stm32g4xx_hal_pwr_ex.c ****   *        on UCPDx_CC1 and UCPDx_CC2 pins
1151:Drivers/STM32G4xx_HAL_Driver/Src/stm32g4xx_hal_pwr_ex.c ****   * @note After exiting reset, the USB Type-C dead battery behavior will be enabled,
1152:Drivers/STM32G4xx_HAL_Driver/Src/stm32g4xx_hal_pwr_ex.c ****   *       which may have a pull-down effect on CC1 and CC2 pins.
1153:Drivers/STM32G4xx_HAL_Driver/Src/stm32g4xx_hal_pwr_ex.c ****   *       It is recommended to disable it in all cases, either to stop this pull-down
1154:Drivers/STM32G4xx_HAL_Driver/Src/stm32g4xx_hal_pwr_ex.c ****   *       or to hand over control to the UCPD (which should therefore be
1155:Drivers/STM32G4xx_HAL_Driver/Src/stm32g4xx_hal_pwr_ex.c ****   *       initialized before doing the disable).
1156:Drivers/STM32G4xx_HAL_Driver/Src/stm32g4xx_hal_pwr_ex.c ****   * @retval None
1157:Drivers/STM32G4xx_HAL_Driver/Src/stm32g4xx_hal_pwr_ex.c ****   */
1158:Drivers/STM32G4xx_HAL_Driver/Src/stm32g4xx_hal_pwr_ex.c **** void HAL_PWREx_DisableUCPDDeadBattery(void)
1159:Drivers/STM32G4xx_HAL_Driver/Src/stm32g4xx_hal_pwr_ex.c **** {
 2319              		.loc 1 1159 1 is_stmt 1 view -0
 2320              		.cfi_startproc
 2321              		@ args = 0, pretend = 0, frame = 0
 2322              		@ frame_needed = 0, uses_anonymous_args = 0
 2323              		@ link register save eliminated.
1160:Drivers/STM32G4xx_HAL_Driver/Src/stm32g4xx_hal_pwr_ex.c ****   /* Write 1 to disable the USB Type-C dead battery pull-down behavior */
1161:Drivers/STM32G4xx_HAL_Driver/Src/stm32g4xx_hal_pwr_ex.c ****   SET_BIT(PWR->CR3, PWR_CR3_UCPD_DBDIS);
 2324              		.loc 1 1161 3 view .LVU507
 2325 0000 024A     		ldr	r2, .L206
 2326 0002 9368     		ldr	r3, [r2, #8]
 2327 0004 43F48043 		orr	r3, r3, #16384
 2328 0008 9360     		str	r3, [r2, #8]
1162:Drivers/STM32G4xx_HAL_Driver/Src/stm32g4xx_hal_pwr_ex.c **** }
ARM GAS  /tmp/cc2lDYQJ.s 			page 64


 2329              		.loc 1 1162 1 is_stmt 0 view .LVU508
 2330 000a 7047     		bx	lr
 2331              	.L207:
 2332              		.align	2
 2333              	.L206:
 2334 000c 00700040 		.word	1073770496
 2335              		.cfi_endproc
 2336              	.LFE365:
 2338              		.text
 2339              	.Letext0:
 2340              		.file 2 "/home/alejopm/.config/Code/User/globalStorage/bmd.stm32-for-vscode/@xpack-dev-tools/arm-n
 2341              		.file 3 "/home/alejopm/.config/Code/User/globalStorage/bmd.stm32-for-vscode/@xpack-dev-tools/arm-n
 2342              		.file 4 "Drivers/CMSIS/Include/core_cm4.h"
 2343              		.file 5 "Drivers/CMSIS/Device/ST/STM32G4xx/Include/stm32g431xx.h"
 2344              		.file 6 "Drivers/STM32G4xx_HAL_Driver/Inc/stm32g4xx_hal_def.h"
 2345              		.file 7 "Drivers/STM32G4xx_HAL_Driver/Inc/stm32g4xx_hal_pwr_ex.h"
 2346              		.file 8 "Drivers/CMSIS/Device/ST/STM32G4xx/Include/system_stm32g4xx.h"
 2347              		.file 9 "Drivers/STM32G4xx_HAL_Driver/Inc/stm32g4xx_hal_pwr.h"
ARM GAS  /tmp/cc2lDYQJ.s 			page 65

